	.file	"thttpd.c"
	.text
.Ltext0:
	.p2align 4,,15
	.type	handle_hup, @function
handle_hup:
.LFB4:
	.file 1 "thttpd.c"
	.loc 1 238 0
	.cfi_startproc
.LVL0:
	.loc 1 247 0
	movl	$1, got_hup(%rip)
	ret
	.cfi_endproc
.LFE4:
	.size	handle_hup, .-handle_hup
	.section	.rodata.str1.8,"aMS",@progbits,1
	.align 8
.LC0:
	.string	"  thttpd - %ld connections (%g/sec), %d max simultaneous, %lld bytes (%g/sec), %d httpd_conns allocated"
	.text
	.p2align 4,,15
	.type	thttpd_logstats, @function
thttpd_logstats:
.LFB35:
	.loc 1 2179 0
	.cfi_startproc
.LVL1:
	subq	$8, %rsp
	.cfi_def_cfa_offset 16
	.loc 1 2180 0
	testq	%rdi, %rdi
	jle	.L3
	.loc 1 2185 0
	movq	stats_bytes(%rip), %r8
	.loc 1 2183 0
	movq	stats_connections(%rip), %rdx
	.loc 1 2181 0
	movl	$.LC0, %esi
	.loc 1 2185 0
	cvtsi2ssq	%rdi, %xmm2
	.loc 1 2181 0
	movl	httpd_conn_count(%rip), %r9d
	movl	stats_simultaneous(%rip), %ecx
	movl	$6, %edi
.LVL2:
	movl	$2, %eax
	.loc 1 2185 0
	cvtsi2ssq	%r8, %xmm1
	.loc 1 2183 0
	cvtsi2ssq	%rdx, %xmm0
	.loc 1 2185 0
	divss	%xmm2, %xmm1
	.loc 1 2183 0
	divss	%xmm2, %xmm0
	.loc 1 2181 0
	unpcklps	%xmm1, %xmm1
	unpcklps	%xmm0, %xmm0
	cvtps2pd	%xmm1, %xmm1
	cvtps2pd	%xmm0, %xmm0
	call	syslog
.LVL3:
.L3:
	.loc 1 2186 0
	movq	$0, stats_connections(%rip)
	.loc 1 2187 0
	movq	$0, stats_bytes(%rip)
	.loc 1 2188 0
	movl	$0, stats_simultaneous(%rip)
	.loc 1 2189 0
	addq	$8, %rsp
	.cfi_def_cfa_offset 8
	ret
	.cfi_endproc
.LFE35:
	.size	thttpd_logstats, .-thttpd_logstats
	.section	.rodata.str1.8
	.align 8
.LC1:
	.string	"throttle #%d '%.80s' rate %ld greatly exceeding limit %ld; %d sending"
	.align 8
.LC2:
	.string	"throttle #%d '%.80s' rate %ld exceeding limit %ld; %d sending"
	.align 8
.LC3:
	.string	"throttle #%d '%.80s' rate %ld lower than minimum %ld; %d sending"
	.text
	.p2align 4,,15
	.type	update_throttles, @function
update_throttles:
.LFB25:
	.loc 1 1933 0
	.cfi_startproc
.LVL4:
	pushq	%r12
	.cfi_def_cfa_offset 16
	.cfi_offset 12, -16
	.loc 1 1944 0
	movabsq	$6148914691236517206, %r12
	.loc 1 1933 0
	pushq	%rbp
	.cfi_def_cfa_offset 24
	.cfi_offset 6, -24
	.loc 1 1942 0
	xorl	%ebp, %ebp
	.loc 1 1933 0
	pushq	%rbx
	.cfi_def_cfa_offset 32
	.cfi_offset 3, -32
	.loc 1 1942 0
	xorl	%ebx, %ebx
	.loc 1 1933 0
	subq	$16, %rsp
	.cfi_def_cfa_offset 48
	.loc 1 1942 0
	movl	numthrottles(%rip), %eax
	testl	%eax, %eax
	jg	.L28
	jmp	.L13
.LVL5:
	.p2align 4,,10
	.p2align 3
.L12:
	addl	$1, %ebx
.LVL6:
	addq	$48, %rbp
	cmpl	%ebx, numthrottles(%rip)
	jle	.L13
.LVL7:
.L28:
	.loc 1 1944 0
	movq	%rbp, %rcx
	addq	throttles(%rip), %rcx
	movq	32(%rcx), %rax
	movq	24(%rcx), %rdx
	.loc 1 1947 0
	movq	8(%rcx), %r9
	.loc 1 1945 0
	movq	$0, 32(%rcx)
	.loc 1 1944 0
	movq	%rax, %rsi
	shrq	$63, %rsi
	addq	%rsi, %rax
	sarq	%rax
	leaq	(%rax,%rdx,2), %rsi
	movq	%rsi, %rax
	sarq	$63, %rsi
	imulq	%r12
	movq	%rdx, %r8
	subq	%rsi, %r8
	.loc 1 1947 0
	cmpq	%r9, %r8
	.loc 1 1944 0
	movq	%r8, 24(%rcx)
	.loc 1 1947 0
	jle	.L10
	.loc 1 1947 0 is_stmt 0 discriminator 1
	movl	40(%rcx), %eax
	testl	%eax, %eax
	je	.L10
	.loc 1 1949 0 is_stmt 1
	leaq	(%r9,%r9), %rdx
	.loc 1 1950 0
	movl	%eax, (%rsp)
	movq	(%rcx), %rcx
	.loc 1 1949 0
	cmpq	%rdx, %r8
	.loc 1 1950 0
	movl	%ebx, %edx
	.loc 1 1949 0
	jle	.L11
	.loc 1 1950 0
	movl	$.LC1, %esi
	movl	$5, %edi
.LVL8:
.L30:
	.loc 1 1952 0
	xorl	%eax, %eax
	call	syslog
.LVL9:
	movq	%rbp, %rcx
	addq	throttles(%rip), %rcx
	movq	24(%rcx), %r8
.LVL10:
.L10:
	.loc 1 1954 0
	movq	16(%rcx), %r9
	cmpq	%r8, %r9
	jle	.L12
	.loc 1 1954 0 is_stmt 0 discriminator 1
	movl	40(%rcx), %eax
	testl	%eax, %eax
	je	.L12
	.loc 1 1956 0 is_stmt 1
	movl	%eax, (%rsp)
	movq	(%rcx), %rcx
	movl	%ebx, %edx
	xorl	%eax, %eax
	movl	$.LC3, %esi
	movl	$5, %edi
.LVL11:
	.loc 1 1942 0
	addl	$1, %ebx
.LVL12:
	addq	$48, %rbp
	.loc 1 1956 0
	call	syslog
.LVL13:
	.loc 1 1942 0
	cmpl	%ebx, numthrottles(%rip)
	jg	.L28
.LVL14:
	.p2align 4,,10
	.p2align 3
.L13:
	.loc 1 1963 0
	movl	max_connects(%rip), %eax
	testl	%eax, %eax
	jle	.L6
	movq	connects(%rip), %r8
	subl	$1, %eax
	movq	throttles(%rip), %rbx
	leaq	(%rax,%rax,8), %rbp
	leaq	144(%r8), %r10
	salq	$4, %rbp
	addq	%r10, %rbp
	jmp	.L21
.LVL15:
	.p2align 4,,10
	.p2align 3
.L17:
	cmpq	%rbp, %r10
	movq	%r10, %r8
.LVL16:
	je	.L6
.L16:
	addq	$144, %r10
.L21:
.LVL17:
	.loc 1 1966 0
	movl	(%r8), %eax
	subl	$2, %eax
	cmpl	$1, %eax
	ja	.L17
	.loc 1 1969 0
	movl	56(%r8), %eax
	.loc 1 1968 0
	movq	$-1, 64(%r8)
.LVL18:
	.loc 1 1969 0
	testl	%eax, %eax
	jle	.L17
	subl	$1, %eax
	movq	%r8, %rcx
	movq	$-1, %rdi
.LVL19:
	leaq	4(%r8,%rax,4), %r11
	jmp	.L20
.LVL20:
	.p2align 4,,10
	.p2align 3
.L33:
	movq	64(%r8), %rdi
.LVL21:
.L20:
	.loc 1 1972 0
	movslq	16(%rcx), %rax
	leaq	(%rax,%rax,2), %rsi
	salq	$4, %rsi
	addq	%rbx, %rsi
	movq	8(%rsi), %rax
	movslq	40(%rsi), %r9
	cqto
	idivq	%r9
.LVL22:
	.loc 1 1973 0
	cmpq	$-1, %rdi
	je	.L31
	.loc 1 1976 0
	cmpq	%rax, %rdi
	cmovle	%rdi, %rax
.LVL23:
.L31:
	addq	$4, %rcx
.LVL24:
	movq	%rax, 64(%r8)
.LVL25:
	.loc 1 1969 0
	cmpq	%r11, %rcx
	jne	.L33
	.loc 1 1963 0
	cmpq	%rbp, %r10
	movq	%r10, %r8
.LVL26:
	jne	.L16
.LVL27:
.L6:
	.loc 1 1980 0
	addq	$16, %rsp
	.cfi_remember_state
	.cfi_def_cfa_offset 32
	popq	%rbx
	.cfi_def_cfa_offset 24
	popq	%rbp
	.cfi_def_cfa_offset 16
	popq	%r12
	.cfi_def_cfa_offset 8
	ret
.LVL28:
	.p2align 4,,10
	.p2align 3
.L11:
	.cfi_restore_state
	.loc 1 1952 0
	movl	$.LC2, %esi
	movl	$6, %edi
.LVL29:
	jmp	.L30
	.cfi_endproc
.LFE25:
	.size	update_throttles, .-update_throttles
	.section	.rodata.str1.8
	.align 8
.LC4:
	.string	"%s: no value required for %s option\n"
	.text
	.p2align 4,,15
	.type	no_value_required, @function
no_value_required:
.LFB14:
	.loc 1 1207 0
	.cfi_startproc
.LVL30:
	.loc 1 1208 0
	testq	%rsi, %rsi
	jne	.L38
	rep ret
.L38:
	.loc 1 1210 0
	movq	%rdi, %rcx
	.loc 1 1207 0
	pushq	%rax
	.cfi_def_cfa_offset 16
	.loc 1 1210 0
	movq	stderr(%rip), %rdi
.LVL31:
	movq	argv0(%rip), %rdx
	movl	$.LC4, %esi
.LVL32:
	xorl	%eax, %eax
	call	fprintf
.LVL33:
	.loc 1 1213 0
	movl	$1, %edi
	call	exit
.LVL34:
	.cfi_endproc
.LFE14:
	.size	no_value_required, .-no_value_required
	.section	.rodata.str1.8
	.align 8
.LC5:
	.string	"%s: value required for %s option\n"
	.text
	.p2align 4,,15
	.type	value_required, @function
value_required:
.LFB13:
	.loc 1 1195 0
	.cfi_startproc
.LVL35:
	.loc 1 1196 0
	testq	%rsi, %rsi
	je	.L43
	rep ret
.L43:
	.loc 1 1198 0
	movq	%rdi, %rcx
	.loc 1 1195 0
	pushq	%rax
	.cfi_def_cfa_offset 16
	.loc 1 1198 0
	movq	stderr(%rip), %rdi
.LVL36:
	movq	argv0(%rip), %rdx
	movl	$.LC5, %esi
.LVL37:
	xorl	%eax, %eax
	call	fprintf
.LVL38:
	.loc 1 1200 0
	movl	$1, %edi
	call	exit
.LVL39:
	.cfi_endproc
.LFE13:
	.size	value_required, .-value_required
	.section	.rodata.str1.8
	.align 8
.LC6:
	.string	"usage:  %s [-C configfile] [-p port] [-d dir] [-r|-nor] [-dd data_dir] [-s|-nos] [-v|-nov] [-g|-nog] [-u user] [-c cgipat] [-t throttles] [-h host] [-l logfile] [-i pidfile] [-T charset] [-P P3P] [-M maxage] [-V] [-D]\n"
	.section	.text.unlikely,"ax",@progbits
	.type	usage, @function
usage:
.LFB11:
	.loc 1 990 0
	.cfi_startproc
	pushq	%rax
	.cfi_def_cfa_offset 16
	.loc 1 991 0
	movq	stderr(%rip), %rdi
	movl	$.LC6, %esi
	movq	argv0(%rip), %rdx
	xorl	%eax, %eax
	call	fprintf
.LVL40:
	.loc 1 994 0
	movl	$1, %edi
	call	exit
.LVL41:
	.cfi_endproc
.LFE11:
	.size	usage, .-usage
	.text
	.p2align 4,,15
	.type	wakeup_connection, @function
wakeup_connection:
.LFB30:
	.loc 1 2105 0
	.cfi_startproc
.LVL42:
	.loc 1 2110 0
	cmpl	$3, (%rdi)
	.loc 1 2109 0
	movq	$0, 96(%rdi)
	.loc 1 2110 0
	je	.L48
	rep ret
	.p2align 4,,10
	.p2align 3
.L48:
	.loc 1 2113 0
	movq	8(%rdi), %rax
	.loc 1 2112 0
	movl	$2, (%rdi)
	.loc 1 2113 0
	movq	%rdi, %rsi
.LVL43:
	movl	$1, %edx
	movl	704(%rax), %eax
	movl	%eax, %edi
.LVL44:
	jmp	fdwatch_add_fd
.LVL45:
	.cfi_endproc
.LFE30:
	.size	wakeup_connection, .-wakeup_connection
	.section	.rodata.str1.8
	.align 8
.LC7:
	.string	"up %ld seconds, stats for %ld seconds:"
	.text
	.p2align 4,,15
	.type	logstats, @function
logstats:
.LFB34:
	.loc 1 2149 0
	.cfi_startproc
.LVL46:
	pushq	%rbx
	.cfi_def_cfa_offset 16
	.cfi_offset 3, -16
	subq	$32, %rsp
	.cfi_def_cfa_offset 48
	.loc 1 2149 0
	movq	%fs:40, %rax
	movq	%rax, 24(%rsp)
	xorl	%eax, %eax
	.loc 1 2154 0
	testq	%rdi, %rdi
	je	.L55
.L50:
	.loc 1 2159 0
	movq	(%rdi), %rax
.LVL47:
	.loc 1 2163 0
	movl	$1, %ecx
	.loc 1 2165 0
	movl	$.LC7, %esi
	movl	$6, %edi
.LVL48:
	.loc 1 2160 0
	movq	%rax, %rdx
	.loc 1 2163 0
	movq	%rax, %rbx
	.loc 1 2160 0
	subq	start_time(%rip), %rdx
.LVL49:
	.loc 1 2163 0
	subq	stats_time(%rip), %rbx
.LVL50:
	.loc 1 2164 0
	movq	%rax, stats_time(%rip)
	.loc 1 2163 0
	cmove	%rcx, %rbx
.LVL51:
	.loc 1 2165 0
	xorl	%eax, %eax
.LVL52:
	movq	%rbx, %rcx
	call	syslog
.LVL53:
	.loc 1 2168 0
	movq	%rbx, %rdi
	call	thttpd_logstats
.LVL54:
	.loc 1 2169 0
	movq	%rbx, %rdi
	call	httpd_logstats
.LVL55:
	.loc 1 2170 0
	movq	%rbx, %rdi
	call	mmc_logstats
.LVL56:
	.loc 1 2171 0
	movq	%rbx, %rdi
	call	fdwatch_logstats
.LVL57:
	.loc 1 2172 0
	movq	%rbx, %rdi
	call	tmr_logstats
.LVL58:
	.loc 1 2173 0
	movq	24(%rsp), %rax
	xorq	%fs:40, %rax
	jne	.L56
	addq	$32, %rsp
	.cfi_remember_state
	.cfi_def_cfa_offset 16
	popq	%rbx
	.cfi_def_cfa_offset 8
.LVL59:
	ret
.LVL60:
	.p2align 4,,10
	.p2align 3
.L55:
	.cfi_restore_state
	.loc 1 2156 0
	movq	%rsp, %rdi
.LVL61:
	xorl	%esi, %esi
	call	gettimeofday
.LVL62:
	.loc 1 2157 0
	movq	%rsp, %rdi
	jmp	.L50
.LVL63:
.L56:
	.loc 1 2173 0
	call	__stack_chk_fail
.LVL64:
	.cfi_endproc
.LFE34:
	.size	logstats, .-logstats
	.p2align 4,,15
	.type	show_stats, @function
show_stats:
.LFB33:
	.loc 1 2140 0
	.cfi_startproc
.LVL65:
	.loc 1 2141 0
	movq	%rsi, %rdi
.LVL66:
	jmp	logstats
.LVL67:
	.cfi_endproc
.LFE33:
	.size	show_stats, .-show_stats
	.p2align 4,,15
	.type	handle_usr2, @function
handle_usr2:
.LFB6:
	.loc 1 282 0
	.cfi_startproc
.LVL68:
	pushq	%rbp
	.cfi_def_cfa_offset 16
	.cfi_offset 6, -16
	pushq	%rbx
	.cfi_def_cfa_offset 24
	.cfi_offset 3, -24
	subq	$8, %rsp
	.cfi_def_cfa_offset 32
	.loc 1 283 0
	call	__errno_location
.LVL69:
	movl	(%rax), %ebp
.LVL70:
	movq	%rax, %rbx
	.loc 1 290 0
	xorl	%edi, %edi
	call	logstats
.LVL71:
	.loc 1 293 0
	movl	%ebp, (%rbx)
	.loc 1 294 0
	addq	$8, %rsp
	.cfi_def_cfa_offset 24
	popq	%rbx
	.cfi_def_cfa_offset 16
	popq	%rbp
	.cfi_def_cfa_offset 8
.LVL72:
	ret
	.cfi_endproc
.LFE6:
	.size	handle_usr2, .-handle_usr2
	.p2align 4,,15
	.type	occasional, @function
occasional:
.LFB32:
	.loc 1 2130 0
	.cfi_startproc
.LVL73:
	subq	$8, %rsp
	.cfi_def_cfa_offset 16
	.loc 1 2131 0
	movq	%rsi, %rdi
.LVL74:
	call	mmc_cleanup
.LVL75:
	.loc 1 2132 0
	call	tmr_cleanup
.LVL76:
	.loc 1 2133 0
	movl	$1, watchdog_flag(%rip)
	.loc 1 2134 0
	addq	$8, %rsp
	.cfi_def_cfa_offset 8
	ret
	.cfi_endproc
.LFE32:
	.size	occasional, .-occasional
	.section	.rodata.str1.1,"aMS",@progbits,1
.LC8:
	.string	"/tmp"
	.text
	.p2align 4,,15
	.type	handle_alrm, @function
handle_alrm:
.LFB7:
	.loc 1 300 0
	.cfi_startproc
.LVL77:
	pushq	%rbp
	.cfi_def_cfa_offset 16
	.cfi_offset 6, -16
	pushq	%rbx
	.cfi_def_cfa_offset 24
	.cfi_offset 3, -24
	subq	$8, %rsp
	.cfi_def_cfa_offset 32
	.loc 1 301 0
	call	__errno_location
.LVL78:
	movq	%rax, %rbx
	movl	(%rax), %ebp
.LVL79:
	.loc 1 304 0
	movl	watchdog_flag(%rip), %eax
	testl	%eax, %eax
	je	.L65
	.loc 1 318 0
	movl	$360, %edi
	.loc 1 311 0
	movl	$0, watchdog_flag(%rip)
	.loc 1 318 0
	call	alarm
.LVL80:
	.loc 1 321 0
	movl	%ebp, (%rbx)
	.loc 1 322 0
	addq	$8, %rsp
	.cfi_remember_state
	.cfi_def_cfa_offset 24
	popq	%rbx
	.cfi_def_cfa_offset 16
	popq	%rbp
	.cfi_def_cfa_offset 8
.LVL81:
	ret
.LVL82:
.L65:
	.cfi_restore_state
	.loc 1 307 0
	movl	$.LC8, %edi
	call	chdir
.LVL83:
	.loc 1 309 0
	call	abort
.LVL84:
	.cfi_endproc
.LFE7:
	.size	handle_alrm, .-handle_alrm
	.section	.rodata.str1.1
.LC9:
	.string	"child wait - %m"
	.text
	.p2align 4,,15
	.type	handle_chld, @function
handle_chld:
.LFB3:
	.loc 1 185 0
	.cfi_startproc
.LVL85:
	pushq	%r12
	.cfi_def_cfa_offset 16
	.cfi_offset 12, -16
	pushq	%rbp
	.cfi_def_cfa_offset 24
	.cfi_offset 6, -24
	.loc 1 224 0
	xorl	%ebp, %ebp
	.loc 1 185 0
	pushq	%rbx
	.cfi_def_cfa_offset 32
	.cfi_offset 3, -32
	subq	$16, %rsp
	.cfi_def_cfa_offset 48
	.loc 1 185 0
	movq	%fs:40, %rax
	movq	%rax, 8(%rsp)
	xorl	%eax, %eax
	.loc 1 186 0
	call	__errno_location
.LVL86:
	movl	(%rax), %r12d
.LVL87:
	movq	%rax, %rbx
	.p2align 4,,10
	.p2align 3
.L67:
	.loc 1 199 0
	leaq	4(%rsp), %rsi
	movl	$1, %edx
	movl	$-1, %edi
	call	waitpid
.LVL88:
	.loc 1 203 0
	testl	%eax, %eax
	je	.L68
	.loc 1 205 0
	js	.L84
	.loc 1 222 0
	movq	hs(%rip), %rdx
	testq	%rdx, %rdx
	je	.L67
	.loc 1 224 0
	movl	36(%rdx), %ecx
	subl	$1, %ecx
	cmovs	%ebp, %ecx
	movl	%ecx, 36(%rdx)
	jmp	.L67
	.p2align 4,,10
	.p2align 3
.L84:
	.loc 1 207 0
	movl	(%rbx), %eax
.LVL89:
	cmpl	$11, %eax
	je	.L67
	cmpl	$4, %eax
	je	.L67
	.loc 1 212 0
	cmpl	$10, %eax
	je	.L68
	.loc 1 213 0
	movl	$.LC9, %esi
	movl	$3, %edi
	xorl	%eax, %eax
	call	syslog
.LVL90:
.L68:
	.loc 1 232 0
	movq	8(%rsp), %rax
	xorq	%fs:40, %rax
	.loc 1 231 0
	movl	%r12d, (%rbx)
	.loc 1 232 0
	jne	.L85
	addq	$16, %rsp
	.cfi_remember_state
	.cfi_def_cfa_offset 32
	popq	%rbx
	.cfi_def_cfa_offset 24
	popq	%rbp
	.cfi_def_cfa_offset 16
	popq	%r12
	.cfi_def_cfa_offset 8
.LVL91:
	ret
.LVL92:
.L85:
	.cfi_restore_state
	call	__stack_chk_fail
.LVL93:
	.cfi_endproc
.LFE3:
	.size	handle_chld, .-handle_chld
	.section	.rodata.str1.8
	.align 8
.LC10:
	.string	"out of memory copying a string"
	.align 8
.LC11:
	.string	"%s: out of memory copying a string\n"
	.text
	.p2align 4,,15
	.type	e_strdup, @function
e_strdup:
.LFB15:
	.loc 1 1220 0
	.cfi_startproc
.LVL94:
	subq	$8, %rsp
	.cfi_def_cfa_offset 16
	.loc 1 1223 0
	call	strdup
.LVL95:
	.loc 1 1224 0
	testq	%rax, %rax
	je	.L89
	.loc 1 1231 0
	addq	$8, %rsp
	.cfi_remember_state
	.cfi_def_cfa_offset 8
	ret
.L89:
	.cfi_restore_state
	.loc 1 1226 0
	movl	$.LC10, %esi
	movl	$2, %edi
	call	syslog
.LVL96:
	.loc 1 1227 0
	movq	stderr(%rip), %rdi
	movq	argv0(%rip), %rdx
	movl	$.LC11, %esi
	xorl	%eax, %eax
	call	fprintf
.LVL97:
	.loc 1 1228 0
	movl	$1, %edi
	call	exit
.LVL98:
	.cfi_endproc
.LFE15:
	.size	e_strdup, .-e_strdup
	.section	.rodata.str1.1
.LC12:
	.string	"r"
.LC13:
	.string	" \t\n\r"
.LC14:
	.string	"debug"
.LC15:
	.string	"port"
.LC16:
	.string	"dir"
.LC17:
	.string	"chroot"
.LC18:
	.string	"nochroot"
.LC19:
	.string	"data_dir"
.LC20:
	.string	"symlink"
.LC21:
	.string	"nosymlink"
.LC22:
	.string	"symlinks"
.LC23:
	.string	"nosymlinks"
.LC24:
	.string	"user"
.LC25:
	.string	"cgipat"
.LC26:
	.string	"cgilimit"
.LC27:
	.string	"urlpat"
.LC28:
	.string	"noemptyreferers"
.LC29:
	.string	"localpat"
.LC30:
	.string	"throttles"
.LC31:
	.string	"host"
.LC32:
	.string	"logfile"
.LC33:
	.string	"vhost"
.LC34:
	.string	"novhost"
.LC35:
	.string	"globalpasswd"
.LC36:
	.string	"noglobalpasswd"
.LC37:
	.string	"pidfile"
.LC38:
	.string	"charset"
.LC39:
	.string	"p3p"
.LC40:
	.string	"max_age"
	.section	.rodata.str1.8
	.align 8
.LC41:
	.string	"%s: unknown config option '%s'\n"
	.text
	.p2align 4,,15
	.type	read_config, @function
read_config:
.LFB12:
	.loc 1 1000 0
	.cfi_startproc
.LVL99:
	pushq	%r13
	.cfi_def_cfa_offset 16
	.cfi_offset 13, -16
	.loc 1 1008 0
	movl	$.LC12, %esi
	.loc 1 1000 0
	pushq	%r12
	.cfi_def_cfa_offset 24
	.cfi_offset 12, -24
	pushq	%rbp
	.cfi_def_cfa_offset 32
	.cfi_offset 6, -32
	pushq	%rbx
	.cfi_def_cfa_offset 40
	.cfi_offset 3, -40
	movq	%rdi, %rbx
	subq	$120, %rsp
	.cfi_def_cfa_offset 160
	.loc 1 1000 0
	movq	%fs:40, %rax
	movq	%rax, 104(%rsp)
	xorl	%eax, %eax
	.loc 1 1008 0
	call	fopen
.LVL100:
	.loc 1 1009 0
	testq	%rax, %rax
	.loc 1 1008 0
	movq	%rax, %r12
.LVL101:
	.loc 1 1009 0
	je	.L142
.LVL102:
.L92:
	.loc 1 1015 0 discriminator 1
	movq	%r12, %rdx
	movl	$1000, %esi
	movq	%rsp, %rdi
	call	fgets
.LVL103:
	testq	%rax, %rax
	je	.L143
	.loc 1 1018 0
	movl	$35, %esi
	movq	%rsp, %rdi
	call	strchr
.LVL104:
	testq	%rax, %rax
	je	.L93
	.loc 1 1019 0
	movb	$0, (%rax)
.L93:
.LVL105:
	.loc 1 1023 0
	movl	$.LC13, %esi
	movq	%rsp, %rdi
	call	strspn
.LVL106:
	leaq	(%rsp,%rax), %rbp
.LVL107:
	.loc 1 1026 0
	cmpb	$0, 0(%rbp)
	je	.L92
	.p2align 4,,10
	.p2align 3
.L136:
	.loc 1 1029 0
	movl	$.LC13, %esi
	movq	%rbp, %rdi
	call	strcspn
.LVL108:
	leaq	0(%rbp,%rax), %rbx
.LVL109:
	.loc 1 1031 0
	jmp	.L96
	.p2align 4,,10
	.p2align 3
.L97:
	.loc 1 1032 0
	addq	$1, %rbx
.LVL110:
	movb	$0, -1(%rbx)
.L96:
	.loc 1 1031 0 discriminator 1
	movzbl	(%rbx), %esi
	cmpb	$32, %sil
	je	.L97
	leal	-9(%rsi), %r8d
	cmpb	$1, %r8b
	jbe	.L97
	cmpb	$13, %sil
	je	.L97
.LVL111:
	.loc 1 1035 0
	movl	$61, %esi
	movq	%rbp, %rdi
	call	strchr
.LVL112:
	.loc 1 1036 0
	testq	%rax, %rax
	je	.L131
	.loc 1 1037 0
	leaq	1(%rax), %r13
.LVL113:
	movb	$0, (%rax)
.LVL114:
.L98:
	.loc 1 1039 0
	movl	$.LC14, %esi
	movq	%rbp, %rdi
	call	strcasecmp
.LVL115:
	testl	%eax, %eax
	je	.L144
	.loc 1 1044 0
	movl	$.LC15, %esi
	movq	%rbp, %rdi
	call	strcasecmp
.LVL116:
	testl	%eax, %eax
	je	.L145
	.loc 1 1049 0
	movl	$.LC16, %esi
	movq	%rbp, %rdi
	call	strcasecmp
.LVL117:
	testl	%eax, %eax
	je	.L146
	.loc 1 1054 0
	movl	$.LC17, %esi
	movq	%rbp, %rdi
	call	strcasecmp
.LVL118:
	testl	%eax, %eax
	je	.L147
	.loc 1 1060 0
	movl	$.LC18, %esi
	movq	%rbp, %rdi
	call	strcasecmp
.LVL119:
	testl	%eax, %eax
	je	.L148
	.loc 1 1066 0
	movl	$.LC19, %esi
	movq	%rbp, %rdi
	call	strcasecmp
.LVL120:
	testl	%eax, %eax
	je	.L149
	.loc 1 1071 0
	movl	$.LC20, %esi
	movq	%rbp, %rdi
	call	strcasecmp
.LVL121:
	testl	%eax, %eax
	je	.L140
	.loc 1 1076 0
	movl	$.LC21, %esi
	movq	%rbp, %rdi
	call	strcasecmp
.LVL122:
	testl	%eax, %eax
	je	.L141
	.loc 1 1081 0
	movl	$.LC22, %esi
	movq	%rbp, %rdi
	call	strcasecmp
.LVL123:
	testl	%eax, %eax
	je	.L140
	.loc 1 1086 0
	movl	$.LC23, %esi
	movq	%rbp, %rdi
	call	strcasecmp
.LVL124:
	testl	%eax, %eax
	je	.L141
	.loc 1 1091 0
	movl	$.LC24, %esi
	movq	%rbp, %rdi
	call	strcasecmp
.LVL125:
	testl	%eax, %eax
	je	.L150
	.loc 1 1096 0
	movl	$.LC25, %esi
	movq	%rbp, %rdi
	call	strcasecmp
.LVL126:
	testl	%eax, %eax
	je	.L151
	.loc 1 1101 0
	movl	$.LC26, %esi
	movq	%rbp, %rdi
	call	strcasecmp
.LVL127:
	testl	%eax, %eax
	je	.L152
	.loc 1 1106 0
	movl	$.LC27, %esi
	movq	%rbp, %rdi
	call	strcasecmp
.LVL128:
	testl	%eax, %eax
	je	.L153
	.loc 1 1111 0
	movl	$.LC28, %esi
	movq	%rbp, %rdi
	call	strcasecmp
.LVL129:
	testl	%eax, %eax
	je	.L154
	.loc 1 1116 0
	movl	$.LC29, %esi
	movq	%rbp, %rdi
	call	strcasecmp
.LVL130:
	testl	%eax, %eax
	je	.L155
	.loc 1 1121 0
	movl	$.LC30, %esi
	movq	%rbp, %rdi
	call	strcasecmp
.LVL131:
	testl	%eax, %eax
	je	.L156
	.loc 1 1126 0
	movl	$.LC31, %esi
	movq	%rbp, %rdi
	call	strcasecmp
.LVL132:
	testl	%eax, %eax
	je	.L157
	.loc 1 1131 0
	movl	$.LC32, %esi
	movq	%rbp, %rdi
	call	strcasecmp
.LVL133:
	testl	%eax, %eax
	je	.L158
	.loc 1 1136 0
	movl	$.LC33, %esi
	movq	%rbp, %rdi
	call	strcasecmp
.LVL134:
	testl	%eax, %eax
	je	.L159
	.loc 1 1141 0
	movl	$.LC34, %esi
	movq	%rbp, %rdi
	call	strcasecmp
.LVL135:
	testl	%eax, %eax
	je	.L160
	.loc 1 1146 0
	movl	$.LC35, %esi
	movq	%rbp, %rdi
	call	strcasecmp
.LVL136:
	testl	%eax, %eax
	je	.L161
	.loc 1 1151 0
	movl	$.LC36, %esi
	movq	%rbp, %rdi
	call	strcasecmp
.LVL137:
	testl	%eax, %eax
	je	.L162
	.loc 1 1156 0
	movl	$.LC37, %esi
	movq	%rbp, %rdi
	call	strcasecmp
.LVL138:
	testl	%eax, %eax
	je	.L163
	.loc 1 1161 0
	movl	$.LC38, %esi
	movq	%rbp, %rdi
	call	strcasecmp
.LVL139:
	testl	%eax, %eax
	je	.L164
	.loc 1 1166 0
	movl	$.LC39, %esi
	movq	%rbp, %rdi
	call	strcasecmp
.LVL140:
	testl	%eax, %eax
	je	.L165
	.loc 1 1171 0
	movl	$.LC40, %esi
	movq	%rbp, %rdi
	call	strcasecmp
.LVL141:
	testl	%eax, %eax
	jne	.L126
	.loc 1 1173 0
	movq	%r13, %rsi
	movq	%rbp, %rdi
	call	value_required
.LVL142:
	.loc 1 1174 0
	movq	%r13, %rdi
	call	atoi
.LVL143:
	movl	%eax, max_age(%rip)
	.p2align 4,,10
	.p2align 3
.L100:
.LVL144:
	.loc 1 1185 0
	movl	$.LC13, %esi
	movq	%rbx, %rdi
	call	strspn
.LVL145:
	leaq	(%rbx,%rax), %rbp
.LVL146:
	.loc 1 1026 0
	cmpb	$0, 0(%rbp)
	jne	.L136
	jmp	.L92
.LVL147:
.L144:
	.loc 1 1041 0
	movq	%r13, %rsi
	movq	%rbp, %rdi
	call	no_value_required
.LVL148:
	.loc 1 1042 0
	movl	$1, debug(%rip)
	jmp	.L100
.L145:
	.loc 1 1046 0
	movq	%r13, %rsi
	movq	%rbp, %rdi
	call	value_required
.LVL149:
	.loc 1 1047 0
	movq	%r13, %rdi
	call	atoi
.LVL150:
	movw	%ax, port(%rip)
	jmp	.L100
.LVL151:
.L131:
	xorl	%r13d, %r13d
	jmp	.L98
.LVL152:
.L146:
	.loc 1 1051 0
	movq	%r13, %rsi
	movq	%rbp, %rdi
	call	value_required
.LVL153:
	.loc 1 1052 0
	movq	%r13, %rdi
	call	e_strdup
.LVL154:
	movq	%rax, dir(%rip)
	jmp	.L100
.L147:
	.loc 1 1056 0
	movq	%r13, %rsi
	movq	%rbp, %rdi
	call	no_value_required
.LVL155:
	.loc 1 1057 0
	movl	$1, do_chroot(%rip)
	.loc 1 1058 0
	movl	$1, no_symlink_check(%rip)
	jmp	.L100
.L148:
	.loc 1 1062 0
	movq	%r13, %rsi
	movq	%rbp, %rdi
	call	no_value_required
.LVL156:
	.loc 1 1063 0
	movl	$0, do_chroot(%rip)
	.loc 1 1064 0
	movl	$0, no_symlink_check(%rip)
	jmp	.L100
.L140:
	.loc 1 1083 0
	movq	%r13, %rsi
	movq	%rbp, %rdi
	call	no_value_required
.LVL157:
	.loc 1 1084 0
	movl	$0, no_symlink_check(%rip)
	jmp	.L100
.L149:
	.loc 1 1068 0
	movq	%r13, %rsi
	movq	%rbp, %rdi
	call	value_required
.LVL158:
	.loc 1 1069 0
	movq	%r13, %rdi
	call	e_strdup
.LVL159:
	movq	%rax, data_dir(%rip)
	jmp	.L100
.L141:
	.loc 1 1088 0
	movq	%r13, %rsi
	movq	%rbp, %rdi
	call	no_value_required
.LVL160:
	.loc 1 1089 0
	movl	$1, no_symlink_check(%rip)
	jmp	.L100
.L150:
	.loc 1 1093 0
	movq	%r13, %rsi
	movq	%rbp, %rdi
	call	value_required
.LVL161:
	.loc 1 1094 0
	movq	%r13, %rdi
	call	e_strdup
.LVL162:
	movq	%rax, user(%rip)
	jmp	.L100
.L152:
	.loc 1 1103 0
	movq	%r13, %rsi
	movq	%rbp, %rdi
	call	value_required
.LVL163:
	.loc 1 1104 0
	movq	%r13, %rdi
	call	atoi
.LVL164:
	movl	%eax, cgi_limit(%rip)
	jmp	.L100
.L151:
	.loc 1 1098 0
	movq	%r13, %rsi
	movq	%rbp, %rdi
	call	value_required
.LVL165:
	.loc 1 1099 0
	movq	%r13, %rdi
	call	e_strdup
.LVL166:
	movq	%rax, cgi_pattern(%rip)
	jmp	.L100
.LVL167:
.L143:
	.loc 1 1189 0
	movq	%r12, %rdi
	call	fclose
.LVL168:
	.loc 1 1190 0
	movq	104(%rsp), %rax
	xorq	%fs:40, %rax
	jne	.L166
	addq	$120, %rsp
	.cfi_remember_state
	.cfi_def_cfa_offset 40
	popq	%rbx
	.cfi_def_cfa_offset 32
	popq	%rbp
	.cfi_def_cfa_offset 24
	popq	%r12
	.cfi_def_cfa_offset 16
.LVL169:
	popq	%r13
	.cfi_def_cfa_offset 8
	ret
.LVL170:
.L154:
	.cfi_restore_state
	.loc 1 1113 0
	movq	%r13, %rsi
	movq	%rbp, %rdi
	call	no_value_required
.LVL171:
	.loc 1 1114 0
	movl	$1, no_empty_referers(%rip)
	jmp	.L100
.L153:
	.loc 1 1108 0
	movq	%r13, %rsi
	movq	%rbp, %rdi
	call	value_required
.LVL172:
	.loc 1 1109 0
	movq	%r13, %rdi
	call	e_strdup
.LVL173:
	movq	%rax, url_pattern(%rip)
	jmp	.L100
.L155:
	.loc 1 1118 0
	movq	%r13, %rsi
	movq	%rbp, %rdi
	call	value_required
.LVL174:
	.loc 1 1119 0
	movq	%r13, %rdi
	call	e_strdup
.LVL175:
	movq	%rax, local_pattern(%rip)
	jmp	.L100
.L156:
	.loc 1 1123 0
	movq	%r13, %rsi
	movq	%rbp, %rdi
	call	value_required
.LVL176:
	.loc 1 1124 0
	movq	%r13, %rdi
	call	e_strdup
.LVL177:
	movq	%rax, throttlefile(%rip)
	jmp	.L100
.LVL178:
.L142:
	.loc 1 1011 0
	movq	%rbx, %rdi
	call	perror
.LVL179:
	.loc 1 1012 0
	movl	$1, %edi
	call	exit
.LVL180:
.L166:
	.loc 1 1190 0
	call	__stack_chk_fail
.LVL181:
.L158:
	.loc 1 1133 0
	movq	%r13, %rsi
	movq	%rbp, %rdi
	call	value_required
.LVL182:
	.loc 1 1134 0
	movq	%r13, %rdi
	call	e_strdup
.LVL183:
	movq	%rax, logfile(%rip)
	jmp	.L100
.L157:
	.loc 1 1128 0
	movq	%r13, %rsi
	movq	%rbp, %rdi
	call	value_required
.LVL184:
	.loc 1 1129 0
	movq	%r13, %rdi
	call	e_strdup
.LVL185:
	movq	%rax, hostname(%rip)
	jmp	.L100
.L126:
	.loc 1 1178 0
	movq	stderr(%rip), %rdi
	movq	argv0(%rip), %rdx
	movq	%rbp, %rcx
	movl	$.LC41, %esi
	xorl	%eax, %eax
	call	fprintf
.LVL186:
	.loc 1 1180 0
	movl	$1, %edi
	call	exit
.LVL187:
.L165:
	.loc 1 1168 0
	movq	%r13, %rsi
	movq	%rbp, %rdi
	call	value_required
.LVL188:
	.loc 1 1169 0
	movq	%r13, %rdi
	call	e_strdup
.LVL189:
	movq	%rax, p3p(%rip)
	jmp	.L100
.L164:
	.loc 1 1163 0
	movq	%r13, %rsi
	movq	%rbp, %rdi
	call	value_required
.LVL190:
	.loc 1 1164 0
	movq	%r13, %rdi
	call	e_strdup
.LVL191:
	movq	%rax, charset(%rip)
	jmp	.L100
.L163:
	.loc 1 1158 0
	movq	%r13, %rsi
	movq	%rbp, %rdi
	call	value_required
.LVL192:
	.loc 1 1159 0
	movq	%r13, %rdi
	call	e_strdup
.LVL193:
	movq	%rax, pidfile(%rip)
	jmp	.L100
.L162:
	.loc 1 1153 0
	movq	%r13, %rsi
	movq	%rbp, %rdi
	call	no_value_required
.LVL194:
	.loc 1 1154 0
	movl	$0, do_global_passwd(%rip)
	jmp	.L100
.L161:
	.loc 1 1148 0
	movq	%r13, %rsi
	movq	%rbp, %rdi
	call	no_value_required
.LVL195:
	.loc 1 1149 0
	movl	$1, do_global_passwd(%rip)
	jmp	.L100
.L160:
	.loc 1 1143 0
	movq	%r13, %rsi
	movq	%rbp, %rdi
	call	no_value_required
.LVL196:
	.loc 1 1144 0
	movl	$0, do_vhost(%rip)
	jmp	.L100
.L159:
	.loc 1 1138 0
	movq	%r13, %rsi
	movq	%rbp, %rdi
	call	no_value_required
.LVL197:
	.loc 1 1139 0
	movl	$1, do_vhost(%rip)
	jmp	.L100
	.cfi_endproc
.LFE12:
	.size	read_config, .-read_config
	.section	.rodata.str1.1
.LC42:
	.string	"nobody"
.LC43:
	.string	"iso-8859-1"
.LC44:
	.string	""
.LC45:
	.string	"-V"
.LC46:
	.string	"thttpd/2.27.0 Oct 3, 2014"
.LC47:
	.string	"-C"
.LC48:
	.string	"-p"
.LC49:
	.string	"-d"
.LC50:
	.string	"-r"
.LC51:
	.string	"-nor"
.LC52:
	.string	"-dd"
.LC53:
	.string	"-s"
.LC54:
	.string	"-nos"
.LC55:
	.string	"-u"
.LC56:
	.string	"-c"
.LC57:
	.string	"-t"
.LC58:
	.string	"-h"
.LC59:
	.string	"-l"
.LC60:
	.string	"-v"
.LC61:
	.string	"-nov"
.LC62:
	.string	"-g"
.LC63:
	.string	"-nog"
.LC64:
	.string	"-i"
.LC65:
	.string	"-T"
.LC66:
	.string	"-P"
.LC67:
	.string	"-M"
.LC68:
	.string	"-D"
	.text
	.p2align 4,,15
	.type	parse_args, @function
parse_args:
.LFB10:
	.loc 1 837 0
	.cfi_startproc
.LVL198:
	pushq	%r15
	.cfi_def_cfa_offset 16
	.cfi_offset 15, -16
	.loc 1 841 0
	movl	$80, %eax
	.loc 1 837 0
	pushq	%r14
	.cfi_def_cfa_offset 24
	.cfi_offset 14, -24
	movl	%edi, %r14d
	pushq	%r13
	.cfi_def_cfa_offset 32
	.cfi_offset 13, -32
	pushq	%r12
	.cfi_def_cfa_offset 40
	.cfi_offset 12, -40
	pushq	%rbp
	.cfi_def_cfa_offset 48
	.cfi_offset 6, -48
	pushq	%rbx
	.cfi_def_cfa_offset 56
	.cfi_offset 3, -56
	subq	$24, %rsp
	.cfi_def_cfa_offset 80
	.loc 1 883 0
	cmpl	$1, %edi
	.loc 1 840 0
	movl	$0, debug(%rip)
	.loc 1 841 0
	movw	%ax, port(%rip)
	.loc 1 842 0
	movq	$0, dir(%rip)
	.loc 1 843 0
	movq	$0, data_dir(%rip)
	.loc 1 847 0
	movl	$0, do_chroot(%rip)
	.loc 1 849 0
	movl	$0, no_log(%rip)
	.loc 1 850 0
	movl	$0, no_symlink_check(%rip)
	.loc 1 854 0
	movl	$0, do_vhost(%rip)
	.loc 1 859 0
	movl	$0, do_global_passwd(%rip)
	.loc 1 864 0
	movq	$0, cgi_pattern(%rip)
	.loc 1 869 0
	movl	$0, cgi_limit(%rip)
	.loc 1 871 0
	movq	$0, url_pattern(%rip)
	.loc 1 872 0
	movl	$0, no_empty_referers(%rip)
	.loc 1 873 0
	movq	$0, local_pattern(%rip)
	.loc 1 874 0
	movq	$0, throttlefile(%rip)
	.loc 1 875 0
	movq	$0, hostname(%rip)
	.loc 1 876 0
	movq	$0, logfile(%rip)
	.loc 1 877 0
	movq	$0, pidfile(%rip)
	.loc 1 878 0
	movq	$.LC42, user(%rip)
	.loc 1 879 0
	movq	$.LC43, charset(%rip)
	.loc 1 880 0
	movq	$.LC44, p3p(%rip)
	.loc 1 881 0
	movl	$-1, max_age(%rip)
.LVL199:
	.loc 1 883 0
	jle	.L195
	movq	8(%rsi), %rbx
	movq	%rsi, %r15
	cmpb	$45, (%rbx)
	jne	.L193
	.loc 1 882 0
	movl	$1, %ebp
	movl	$.LC45, %r13d
	.loc 1 885 0
	movl	$3, %r12d
	jmp	.L194
.LVL200:
	.p2align 4,,10
	.p2align 3
.L199:
	.loc 1 895 0 discriminator 1
	leal	1(%rbp), %edx
	cmpl	%edx, %r14d
	jle	.L173
.LVL201:
	.loc 1 898 0
	movslq	%edx, %rax
	movl	%edx, 12(%rsp)
	movq	(%r15,%rax,8), %rdi
	call	atoi
.LVL202:
	movl	12(%rsp), %edx
	movw	%ax, port(%rip)
	movl	%edx, %ebp
.LVL203:
.L172:
	.loc 1 981 0
	addl	$1, %ebp
.LVL204:
	.loc 1 883 0
	cmpl	%ebp, %r14d
	jle	.L168
.L200:
	.loc 1 883 0 is_stmt 0 discriminator 2
	movslq	%ebp, %rax
	movq	(%r15,%rax,8), %rbx
	cmpb	$45, (%rbx)
	jne	.L193
.LVL205:
.L194:
	.loc 1 885 0 is_stmt 1
	movq	%rbx, %rsi
	movq	%r13, %rdi
	movq	%r12, %rcx
	repz cmpsb
	je	.L197
	.loc 1 890 0
	movl	$.LC47, %edi
	movq	%rbx, %rsi
	movq	%r12, %rcx
	repz cmpsb
	jne	.L171
	.loc 1 890 0 is_stmt 0 discriminator 1
	leal	1(%rbp), %eax
	cmpl	%eax, %r14d
	jg	.L198
.L171:
	.loc 1 895 0 is_stmt 1
	movl	$.LC48, %edi
	movq	%rbx, %rsi
	movq	%r12, %rcx
	repz cmpsb
	je	.L199
.L173:
	.loc 1 900 0
	movl	$.LC49, %edi
	movq	%rbx, %rsi
	movq	%r12, %rcx
	repz cmpsb
	jne	.L174
	.loc 1 900 0 is_stmt 0 discriminator 1
	leal	1(%rbp), %eax
	cmpl	%eax, %r14d
	jle	.L174
.LVL206:
	.loc 1 903 0 is_stmt 1
	movslq	%eax, %rdx
	movl	%eax, %ebp
	movq	(%r15,%rdx,8), %rdx
	.loc 1 981 0
	addl	$1, %ebp
.LVL207:
	.loc 1 883 0
	cmpl	%ebp, %r14d
	.loc 1 903 0
	movq	%rdx, dir(%rip)
	.loc 1 883 0
	jg	.L200
.LVL208:
.L168:
	.loc 1 983 0
	cmpl	%r14d, %ebp
	jne	.L193
	.loc 1 985 0
	addq	$24, %rsp
	.cfi_remember_state
	.cfi_def_cfa_offset 56
	popq	%rbx
	.cfi_def_cfa_offset 48
	popq	%rbp
	.cfi_def_cfa_offset 40
	popq	%r12
	.cfi_def_cfa_offset 32
	popq	%r13
	.cfi_def_cfa_offset 24
	popq	%r14
	.cfi_def_cfa_offset 16
.LVL209:
	popq	%r15
	.cfi_def_cfa_offset 8
	ret
.LVL210:
	.p2align 4,,10
	.p2align 3
.L174:
	.cfi_restore_state
	.loc 1 905 0
	movl	$.LC50, %edi
	movq	%rbx, %rsi
	movq	%r12, %rcx
	repz cmpsb
	jne	.L175
	.loc 1 907 0
	movl	$1, do_chroot(%rip)
	.loc 1 908 0
	movl	$1, no_symlink_check(%rip)
	jmp	.L172
	.p2align 4,,10
	.p2align 3
.L175:
	.loc 1 910 0
	movl	$.LC51, %edi
	movl	$5, %ecx
	movq	%rbx, %rsi
	repz cmpsb
	jne	.L176
	.loc 1 912 0
	movl	$0, do_chroot(%rip)
	.loc 1 913 0
	movl	$0, no_symlink_check(%rip)
	jmp	.L172
	.p2align 4,,10
	.p2align 3
.L198:
.LVL211:
	.loc 1 893 0
	movslq	%eax, %rdx
	movl	%eax, 12(%rsp)
	movq	(%r15,%rdx,8), %rdi
	call	read_config
.LVL212:
	movl	12(%rsp), %eax
	movl	%eax, %ebp
	jmp	.L172
.LVL213:
	.p2align 4,,10
	.p2align 3
.L176:
	.loc 1 915 0
	movl	$.LC52, %edi
	movl	$4, %ecx
	movq	%rbx, %rsi
	repz cmpsb
	jne	.L177
	.loc 1 915 0 is_stmt 0 discriminator 1
	leal	1(%rbp), %eax
	cmpl	%eax, %r14d
	jle	.L177
.LVL214:
	.loc 1 918 0 is_stmt 1
	movslq	%eax, %rdx
	movl	%eax, %ebp
	movq	(%r15,%rdx,8), %rdx
	movq	%rdx, data_dir(%rip)
	jmp	.L172
.LVL215:
	.p2align 4,,10
	.p2align 3
.L177:
	.loc 1 920 0
	movl	$.LC53, %edi
	movq	%rbx, %rsi
	movq	%r12, %rcx
	repz cmpsb
	jne	.L178
	.loc 1 921 0
	movl	$0, no_symlink_check(%rip)
	jmp	.L172
	.p2align 4,,10
	.p2align 3
.L178:
	.loc 1 922 0
	movl	$.LC54, %edi
	movl	$5, %ecx
	movq	%rbx, %rsi
	repz cmpsb
	je	.L201
	.loc 1 924 0
	movl	$.LC55, %esi
	movq	%rbx, %rdi
	call	strcmp
.LVL216:
	testl	%eax, %eax
	jne	.L180
	.loc 1 924 0 is_stmt 0 discriminator 1
	leal	1(%rbp), %eax
	cmpl	%eax, %r14d
	jle	.L180
.LVL217:
	.loc 1 927 0 is_stmt 1
	movslq	%eax, %rdx
	movl	%eax, %ebp
	movq	(%r15,%rdx,8), %rdx
	movq	%rdx, user(%rip)
	jmp	.L172
.LVL218:
.L201:
	.loc 1 923 0
	movl	$1, no_symlink_check(%rip)
	jmp	.L172
.L180:
	.loc 1 929 0
	movl	$.LC56, %esi
	movq	%rbx, %rdi
	call	strcmp
.LVL219:
	testl	%eax, %eax
	jne	.L181
	.loc 1 929 0 is_stmt 0 discriminator 1
	leal	1(%rbp), %eax
	cmpl	%eax, %r14d
	jle	.L181
.LVL220:
	.loc 1 932 0 is_stmt 1
	movslq	%eax, %rdx
	movl	%eax, %ebp
	movq	(%r15,%rdx,8), %rdx
	movq	%rdx, cgi_pattern(%rip)
	jmp	.L172
.LVL221:
.L181:
	.loc 1 934 0
	movl	$.LC57, %esi
	movq	%rbx, %rdi
	call	strcmp
.LVL222:
	testl	%eax, %eax
	jne	.L182
	.loc 1 934 0 is_stmt 0 discriminator 1
	leal	1(%rbp), %eax
	cmpl	%eax, %r14d
	jle	.L182
.LVL223:
	.loc 1 937 0 is_stmt 1
	movslq	%eax, %rdx
	movl	%eax, %ebp
	movq	(%r15,%rdx,8), %rdx
	movq	%rdx, throttlefile(%rip)
	jmp	.L172
.LVL224:
.L182:
	.loc 1 939 0
	movl	$.LC58, %esi
	movq	%rbx, %rdi
	call	strcmp
.LVL225:
	testl	%eax, %eax
	jne	.L183
	.loc 1 939 0 is_stmt 0 discriminator 1
	leal	1(%rbp), %eax
	cmpl	%eax, %r14d
	jle	.L183
.LVL226:
	.loc 1 942 0 is_stmt 1
	movslq	%eax, %rdx
	movl	%eax, %ebp
	movq	(%r15,%rdx,8), %rdx
	movq	%rdx, hostname(%rip)
	jmp	.L172
.LVL227:
.L183:
	.loc 1 944 0
	movl	$.LC59, %esi
	movq	%rbx, %rdi
	call	strcmp
.LVL228:
	testl	%eax, %eax
	jne	.L184
	.loc 1 944 0 is_stmt 0 discriminator 1
	leal	1(%rbp), %eax
	cmpl	%eax, %r14d
	jg	.L202
.L184:
	.loc 1 949 0 is_stmt 1
	movl	$.LC60, %esi
	movq	%rbx, %rdi
	call	strcmp
.LVL229:
	testl	%eax, %eax
	jne	.L185
	.loc 1 950 0
	movl	$1, do_vhost(%rip)
	jmp	.L172
.L185:
	.loc 1 951 0
	movl	$.LC61, %esi
	movq	%rbx, %rdi
	call	strcmp
.LVL230:
	testl	%eax, %eax
	je	.L203
	.loc 1 953 0
	movl	$.LC62, %esi
	movq	%rbx, %rdi
	call	strcmp
.LVL231:
	testl	%eax, %eax
	jne	.L187
	.loc 1 954 0
	movl	$1, do_global_passwd(%rip)
	jmp	.L172
.L202:
.LVL232:
	.loc 1 947 0
	movslq	%eax, %rdx
	movl	%eax, %ebp
	movq	(%r15,%rdx,8), %rdx
	movq	%rdx, logfile(%rip)
	jmp	.L172
.LVL233:
.L203:
	.loc 1 952 0
	movl	$0, do_vhost(%rip)
	jmp	.L172
.LVL234:
.L195:
	.loc 1 882 0
	movl	$1, %ebp
	jmp	.L168
.LVL235:
.L187:
	.loc 1 955 0
	movl	$.LC63, %esi
	movq	%rbx, %rdi
	call	strcmp
.LVL236:
	testl	%eax, %eax
	jne	.L188
	.loc 1 956 0
	movl	$0, do_global_passwd(%rip)
	jmp	.L172
.L197:
	.loc 1 887 0
	movl	$.LC46, %edi
	call	puts
.LVL237:
	.loc 1 888 0
	xorl	%edi, %edi
	call	exit
.LVL238:
.L188:
	.loc 1 957 0
	movl	$.LC64, %esi
	movq	%rbx, %rdi
	call	strcmp
.LVL239:
	testl	%eax, %eax
	jne	.L189
	.loc 1 957 0 is_stmt 0 discriminator 1
	leal	1(%rbp), %eax
	cmpl	%eax, %r14d
	jle	.L189
.LVL240:
	.loc 1 960 0 is_stmt 1
	movslq	%eax, %rdx
	movl	%eax, %ebp
	movq	(%r15,%rdx,8), %rdx
	movq	%rdx, pidfile(%rip)
	jmp	.L172
.LVL241:
.L189:
	.loc 1 962 0
	movl	$.LC65, %esi
	movq	%rbx, %rdi
	call	strcmp
.LVL242:
	testl	%eax, %eax
	jne	.L190
	.loc 1 962 0 is_stmt 0 discriminator 1
	leal	1(%rbp), %eax
	cmpl	%eax, %r14d
	jle	.L190
.LVL243:
	.loc 1 965 0 is_stmt 1
	movslq	%eax, %rdx
	movl	%eax, %ebp
	movq	(%r15,%rdx,8), %rdx
	movq	%rdx, charset(%rip)
	jmp	.L172
.LVL244:
.L190:
	.loc 1 967 0
	movl	$.LC66, %esi
	movq	%rbx, %rdi
	call	strcmp
.LVL245:
	testl	%eax, %eax
	jne	.L191
	.loc 1 967 0 is_stmt 0 discriminator 1
	leal	1(%rbp), %eax
	cmpl	%eax, %r14d
	jle	.L191
.LVL246:
	.loc 1 970 0 is_stmt 1
	movslq	%eax, %rdx
	movl	%eax, %ebp
	movq	(%r15,%rdx,8), %rdx
	movq	%rdx, p3p(%rip)
	jmp	.L172
.LVL247:
.L191:
	.loc 1 972 0
	movl	$.LC67, %esi
	movq	%rbx, %rdi
	call	strcmp
.LVL248:
	testl	%eax, %eax
	jne	.L192
	.loc 1 972 0 is_stmt 0 discriminator 1
	leal	1(%rbp), %edx
	cmpl	%edx, %r14d
	jle	.L192
.LVL249:
	.loc 1 975 0 is_stmt 1
	movslq	%edx, %rax
	movl	%edx, 12(%rsp)
	movq	(%r15,%rax,8), %rdi
	call	atoi
.LVL250:
	movl	12(%rsp), %edx
	movl	%eax, max_age(%rip)
	movl	%edx, %ebp
	jmp	.L172
.LVL251:
.L192:
	.loc 1 977 0
	movl	$.LC68, %esi
	movq	%rbx, %rdi
	call	strcmp
.LVL252:
	testl	%eax, %eax
	jne	.L193
	.loc 1 978 0
	movl	$1, debug(%rip)
	jmp	.L172
.LVL253:
.L193:
	.loc 1 980 0
	call	usage
.LVL254:
	.cfi_endproc
.LFE10:
	.size	parse_args, .-parse_args
	.section	.rodata.str1.1
.LC69:
	.string	"%.80s - %m"
.LC70:
	.string	" %4900[^ \t] %ld-%ld"
.LC71:
	.string	" %4900[^ \t] %ld"
	.section	.rodata.str1.8
	.align 8
.LC72:
	.string	"unparsable line in %.80s - %.80s"
	.align 8
.LC73:
	.string	"%s: unparsable line in %.80s - %.80s\n"
	.section	.rodata.str1.1
.LC74:
	.string	"|/"
	.section	.rodata.str1.8
	.align 8
.LC75:
	.string	"out of memory allocating a throttletab"
	.align 8
.LC76:
	.string	"%s: out of memory allocating a throttletab\n"
	.text
	.p2align 4,,15
	.type	read_throttlefile, @function
read_throttlefile:
.LFB17:
	.loc 1 1370 0
	.cfi_startproc
.LVL255:
	pushq	%r14
	.cfi_def_cfa_offset 16
	.cfi_offset 14, -16
	.loc 1 1379 0
	movl	$.LC12, %esi
	.loc 1 1370 0
	pushq	%r13
	.cfi_def_cfa_offset 24
	.cfi_offset 13, -24
	pushq	%r12
	.cfi_def_cfa_offset 32
	.cfi_offset 12, -32
	movq	%rdi, %r12
	pushq	%rbp
	.cfi_def_cfa_offset 40
	.cfi_offset 6, -40
	pushq	%rbx
	.cfi_def_cfa_offset 48
	.cfi_offset 3, -48
	subq	$10048, %rsp
	.cfi_def_cfa_offset 10096
	.loc 1 1370 0
	movq	%fs:40, %rax
	movq	%rax, 10040(%rsp)
	xorl	%eax, %eax
	.loc 1 1379 0
	call	fopen
.LVL256:
	.loc 1 1380 0
	testq	%rax, %rax
	.loc 1 1379 0
	movq	%rax, %rbp
.LVL257:
	.loc 1 1380 0
	je	.L246
	.loc 1 1387 0
	leaq	16(%rsp), %rdi
	leaq	32(%rsp), %rbx
	.loc 1 1424 0
	leaq	5041(%rsp), %r13
	.loc 1 1387 0
	xorl	%esi, %esi
	call	gettimeofday
.LVL258:
	.p2align 4,,10
	.p2align 3
.L217:
	.loc 1 1389 0 discriminator 1
	movq	%rbp, %rdx
	movl	$5000, %esi
	movq	%rbx, %rdi
	call	fgets
.LVL259:
	testq	%rax, %rax
	je	.L247
	.loc 1 1392 0
	movl	$35, %esi
	movq	%rbx, %rdi
	call	strchr
.LVL260:
	.loc 1 1393 0
	testq	%rax, %rax
	je	.L207
	.loc 1 1394 0
	movb	$0, (%rax)
.L207:
	.loc 1 1397 0
	movq	%rbx, %rdx
.LVL261:
.L208:
	movl	(%rdx), %ecx
	addq	$4, %rdx
	leal	-16843009(%rcx), %eax
	notl	%ecx
	andl	%ecx, %eax
	andl	$-2139062144, %eax
	je	.L208
	movl	%eax, %ecx
	shrl	$16, %ecx
	testl	$32896, %eax
	cmove	%ecx, %eax
	leaq	2(%rdx), %rcx
	cmove	%rcx, %rdx
	addb	%al, %al
	sbbq	$3, %rdx
	subq	%rbx, %rdx
	.loc 1 1398 0
	cmpl	$0, %edx
	.loc 1 1397 0
	movl	%edx, %r9d
.LVL262:
	.loc 1 1398 0
	jg	.L211
	jmp	.L251
.LVL263:
	.p2align 4,,10
	.p2align 3
.L213:
	testl	%r9d, %r9d
	.loc 1 1401 0
	movb	$0, 32(%rsp,%r10)
	.loc 1 1398 0
	je	.L217
.L211:
	.loc 1 1399 0 discriminator 2
	subl	$1, %r9d
.LVL264:
	movslq	%r9d, %r10
	movzbl	32(%rsp,%r10), %eax
	.loc 1 1398 0 discriminator 2
	cmpb	$32, %al
	je	.L213
	.loc 1 1399 0 discriminator 2
	leal	-9(%rax), %edx
	.loc 1 1398 0 discriminator 2
	cmpb	$1, %dl
	jbe	.L213
	.loc 1 1400 0
	cmpb	$13, %al
	je	.L213
.LVL265:
.L216:
	.loc 1 1408 0
	leaq	8(%rsp), %rcx
	leaq	5040(%rsp), %rdx
	xorl	%eax, %eax
	movq	%rsp, %r8
	movl	$.LC70, %esi
	movq	%rbx, %rdi
	call	__isoc99_sscanf
.LVL266:
	cmpl	$3, %eax
	je	.L214
	.loc 1 1410 0
	leaq	5040(%rsp), %rdx
	xorl	%eax, %eax
	movq	%rsp, %rcx
	movl	$.LC71, %esi
	movq	%rbx, %rdi
	call	__isoc99_sscanf
.LVL267:
	cmpl	$2, %eax
	jne	.L218
	.loc 1 1411 0
	movq	$0, 8(%rsp)
.L214:
	.loc 1 1423 0
	cmpb	$47, 5040(%rsp)
	jne	.L221
	jmp	.L252
.LVL268:
	.p2align 4,,10
	.p2align 3
.L222:
	.loc 1 1426 0
	leaq	2(%rax), %rsi
	leaq	1(%rax), %rdi
	call	strcpy
.LVL269:
.L221:
	.loc 1 1425 0 discriminator 1
	leaq	5040(%rsp), %rdi
	movl	$.LC74, %esi
	call	strstr
.LVL270:
	testq	%rax, %rax
	jne	.L222
	.loc 1 1429 0
	movslq	numthrottles(%rip), %rdx
	movl	maxthrottles(%rip), %eax
.LVL271:
	cmpl	%eax, %edx
	jl	.L223
	.loc 1 1431 0
	testl	%eax, %eax
	jne	.L224
	.loc 1 1434 0
	movl	$4800, %edi
	.loc 1 1433 0
	movl	$100, maxthrottles(%rip)
	.loc 1 1434 0
	call	malloc
.LVL272:
	movq	%rax, throttles(%rip)
.L225:
	.loc 1 1441 0
	testq	%rax, %rax
	je	.L226
	movslq	numthrottles(%rip), %rdx
.L227:
	.loc 1 1452 0
	leaq	(%rdx,%rdx,2), %rdx
	leaq	5040(%rsp), %rdi
	salq	$4, %rdx
	leaq	(%rax,%rdx), %r14
	call	e_strdup
.LVL273:
	.loc 1 1453 0
	movl	numthrottles(%rip), %edx
	.loc 1 1452 0
	movq	%rax, (%r14)
	.loc 1 1453 0
	movq	(%rsp), %rcx
	movslq	%edx, %rax
	.loc 1 1459 0
	addl	$1, %edx
	.loc 1 1453 0
	leaq	(%rax,%rax,2), %rax
	.loc 1 1459 0
	movl	%edx, numthrottles(%rip)
	.loc 1 1453 0
	salq	$4, %rax
	addq	throttles(%rip), %rax
	movq	%rcx, 8(%rax)
	.loc 1 1454 0
	movq	8(%rsp), %rcx
	.loc 1 1455 0
	movq	$0, 24(%rax)
	.loc 1 1456 0
	movq	$0, 32(%rax)
	.loc 1 1457 0
	movl	$0, 40(%rax)
	.loc 1 1454 0
	movq	%rcx, 16(%rax)
	jmp	.L217
.L218:
	.loc 1 1414 0
	movq	%rbx, %rcx
	movq	%r12, %rdx
	xorl	%eax, %eax
	movl	$.LC72, %esi
	movl	$2, %edi
	call	syslog
.LVL274:
	.loc 1 1416 0
	movq	argv0(%rip), %rdx
	movq	stderr(%rip), %rdi
	movq	%rbx, %r8
	movq	%r12, %rcx
	movl	$.LC73, %esi
	xorl	%eax, %eax
	call	fprintf
.LVL275:
	.loc 1 1419 0
	jmp	.L217
.L224:
	.loc 1 1438 0
	addl	%eax, %eax
	.loc 1 1439 0
	movq	throttles(%rip), %rdi
	.loc 1 1438 0
	movl	%eax, maxthrottles(%rip)
	.loc 1 1439 0
	cltq
	leaq	(%rax,%rax,2), %rsi
	salq	$4, %rsi
	call	realloc
.LVL276:
	movq	%rax, throttles(%rip)
	jmp	.L225
.L223:
	movq	throttles(%rip), %rax
	jmp	.L227
.L247:
	.loc 1 1461 0
	movq	%rbp, %rdi
	call	fclose
.LVL277:
	.loc 1 1462 0
	movq	10040(%rsp), %rax
	xorq	%fs:40, %rax
	jne	.L250
	addq	$10048, %rsp
	.cfi_remember_state
	.cfi_def_cfa_offset 48
	popq	%rbx
	.cfi_def_cfa_offset 40
	popq	%rbp
	.cfi_def_cfa_offset 32
.LVL278:
	popq	%r12
	.cfi_def_cfa_offset 24
.LVL279:
	popq	%r13
	.cfi_def_cfa_offset 16
	popq	%r14
	.cfi_def_cfa_offset 8
	ret
.LVL280:
.L251:
	.cfi_restore_state
	.loc 1 1404 0
	jne	.L216
	jmp	.L217
.LVL281:
.L252:
	.loc 1 1424 0
	leaq	5040(%rsp), %rdi
	movq	%r13, %rsi
	call	strcpy
.LVL282:
	jmp	.L221
.LVL283:
.L246:
	.loc 1 1382 0
	movq	%r12, %rdx
	movl	$.LC69, %esi
	movl	$2, %edi
	xorl	%eax, %eax
.LVL284:
	call	syslog
.LVL285:
	.loc 1 1383 0
	movq	%r12, %rdi
	call	perror
.LVL286:
	.loc 1 1384 0
	movl	$1, %edi
	call	exit
.LVL287:
.L250:
	.loc 1 1462 0
	call	__stack_chk_fail
.LVL288:
.L226:
	.loc 1 1443 0
	movl	$.LC75, %esi
	movl	$2, %edi
	xorl	%eax, %eax
	call	syslog
.LVL289:
	.loc 1 1444 0
	movq	stderr(%rip), %rdi
	movq	argv0(%rip), %rdx
	movl	$.LC76, %esi
	xorl	%eax, %eax
	call	fprintf
.LVL290:
	.loc 1 1447 0
	movl	$1, %edi
	call	exit
.LVL291:
	.cfi_endproc
.LFE17:
	.size	read_throttlefile, .-read_throttlefile
	.section	.rodata.str1.1
.LC77:
	.string	"-"
.LC78:
	.string	"re-opening logfile"
.LC79:
	.string	"a"
.LC80:
	.string	"re-opening %.80s - %m"
	.text
	.p2align 4,,15
	.type	re_open_logfile, @function
re_open_logfile:
.LFB8:
	.loc 1 327 0
	.cfi_startproc
	.loc 1 331 0
	movl	no_log(%rip), %eax
	testl	%eax, %eax
	jne	.L265
	.loc 1 331 0 discriminator 1
	cmpq	$0, hs(%rip)
	je	.L265
	.loc 1 335 0
	movq	logfile(%rip), %rsi
	testq	%rsi, %rsi
	je	.L265
	.loc 1 335 0 is_stmt 0 discriminator 1
	movl	$.LC77, %edi
	movl	$2, %ecx
	repz cmpsb
	jne	.L266
.L265:
	rep ret
	.p2align 4,,10
	.p2align 3
.L266:
	.loc 1 327 0 is_stmt 1
	pushq	%rbp
	.cfi_def_cfa_offset 16
	.cfi_offset 6, -16
	.loc 1 337 0
	xorl	%eax, %eax
	movl	$.LC78, %esi
	movl	$5, %edi
	.loc 1 327 0
	pushq	%rbx
	.cfi_def_cfa_offset 24
	.cfi_offset 3, -24
	subq	$8, %rsp
	.cfi_def_cfa_offset 32
	.loc 1 337 0
	call	syslog
.LVL292:
	.loc 1 338 0
	movq	logfile(%rip), %rdi
	movl	$.LC79, %esi
	call	fopen
.LVL293:
	.loc 1 339 0
	movq	logfile(%rip), %rbp
	movl	$384, %esi
	.loc 1 338 0
	movq	%rax, %rbx
.LVL294:
	.loc 1 339 0
	movq	%rbp, %rdi
	call	chmod
.LVL295:
	.loc 1 340 0
	testl	%eax, %eax
	jne	.L257
	testq	%rbx, %rbx
	je	.L257
	.loc 1 345 0
	movq	%rbx, %rdi
	call	fileno
.LVL296:
	movl	$2, %esi
	movl	%eax, %edi
	movl	$1, %edx
	xorl	%eax, %eax
	call	fcntl
.LVL297:
	.loc 1 346 0
	movq	hs(%rip), %rdi
	.loc 1 348 0
	addq	$8, %rsp
	.cfi_remember_state
	.cfi_def_cfa_offset 24
	.loc 1 346 0
	movq	%rbx, %rsi
	.loc 1 348 0
	popq	%rbx
	.cfi_restore 3
	.cfi_def_cfa_offset 16
.LVL298:
	popq	%rbp
	.cfi_restore 6
	.cfi_def_cfa_offset 8
	.loc 1 346 0
	jmp	httpd_set_logfp
.LVL299:
	.p2align 4,,10
	.p2align 3
.L257:
	.cfi_restore_state
	.loc 1 348 0
	addq	$8, %rsp
	.cfi_def_cfa_offset 24
	.loc 1 342 0
	movq	%rbp, %rdx
	movl	$.LC80, %esi
	.loc 1 348 0
	popq	%rbx
	.cfi_restore 3
	.cfi_def_cfa_offset 16
.LVL300:
	popq	%rbp
	.cfi_restore 6
	.cfi_def_cfa_offset 8
	.loc 1 342 0
	movl	$2, %edi
	xorl	%eax, %eax
.LVL301:
	jmp	syslog
.LVL302:
	.cfi_endproc
.LFE8:
	.size	re_open_logfile, .-re_open_logfile
	.section	.rodata.str1.1
.LC81:
	.string	"too many connections!"
	.section	.rodata.str1.8
	.align 8
.LC82:
	.string	"the connects free list is messed up"
	.align 8
.LC83:
	.string	"out of memory allocating an httpd_conn"
	.text
	.p2align 4,,15
	.type	handle_newconnect, @function
handle_newconnect:
.LFB19:
	.loc 1 1505 0
	.cfi_startproc
.LVL303:
	pushq	%r12
	.cfi_def_cfa_offset 16
	.cfi_offset 12, -16
	movq	%rdi, %r12
	pushq	%rbp
	.cfi_def_cfa_offset 24
	.cfi_offset 6, -24
	movl	%esi, %ebp
	pushq	%rbx
	.cfi_def_cfa_offset 32
	.cfi_offset 3, -32
	subq	$16, %rsp
	.cfi_def_cfa_offset 48
	movl	num_connects(%rip), %eax
.LVL304:
.L277:
	.loc 1 1516 0
	cmpl	%eax, max_connects(%rip)
	jle	.L285
	.loc 1 1527 0
	movslq	first_free_connect(%rip), %rax
	cmpl	$-1, %eax
	je	.L270
	.loc 1 1527 0 is_stmt 0 discriminator 1
	leaq	(%rax,%rax,8), %rbx
	salq	$4, %rbx
	addq	connects(%rip), %rbx
	movl	(%rbx), %eax
	testl	%eax, %eax
	jne	.L270
.LVL305:
	.loc 1 1534 0 is_stmt 1
	movq	8(%rbx), %rdx
	testq	%rdx, %rdx
	je	.L286
.L272:
	.loc 1 1547 0
	movq	hs(%rip), %rdi
	movl	%ebp, %esi
	call	httpd_get_conn
.LVL306:
	testl	%eax, %eax
	je	.L275
	cmpl	$2, %eax
	jne	.L287
	.loc 1 1558 0
	movl	$1, %eax
.LVL307:
.L269:
	.loc 1 1581 0
	addq	$16, %rsp
	.cfi_remember_state
	.cfi_def_cfa_offset 32
	popq	%rbx
	.cfi_def_cfa_offset 24
	popq	%rbp
	.cfi_def_cfa_offset 16
.LVL308:
	popq	%r12
	.cfi_def_cfa_offset 8
.LVL309:
	ret
.LVL310:
	.p2align 4,,10
	.p2align 3
.L287:
	.cfi_restore_state
	.loc 1 1562 0
	movl	4(%rbx), %eax
	.loc 1 1560 0
	movl	$1, (%rbx)
	.loc 1 1563 0
	movl	$-1, 4(%rbx)
	.loc 1 1564 0
	addl	$1, num_connects(%rip)
.LVL311:
	.loc 1 1562 0
	movl	%eax, first_free_connect(%rip)
	.loc 1 1566 0
	movq	(%r12), %rax
	.loc 1 1567 0
	movq	$0, 96(%rbx)
	.loc 1 1568 0
	movq	$0, 104(%rbx)
	.loc 1 1566 0
	movq	%rax, 88(%rbx)
	.loc 1 1573 0
	movq	8(%rbx), %rax
	.loc 1 1569 0
	movq	$0, 136(%rbx)
	.loc 1 1570 0
	movl	$0, 56(%rbx)
	.loc 1 1573 0
	movl	704(%rax), %edi
	call	httpd_set_ndelay
.LVL312:
	.loc 1 1575 0
	movq	8(%rbx), %rax
	xorl	%edx, %edx
	movq	%rbx, %rsi
	movl	704(%rax), %edi
	call	fdwatch_add_fd
.LVL313:
	.loc 1 1577 0
	addq	$1, stats_connections(%rip)
	.loc 1 1578 0
	movl	num_connects(%rip), %eax
	cmpl	stats_simultaneous(%rip), %eax
	jle	.L277
	.loc 1 1579 0
	movl	%eax, stats_simultaneous(%rip)
	jmp	.L277
.LVL314:
	.p2align 4,,10
	.p2align 3
.L275:
	.loc 1 1553 0
	movq	%r12, %rdi
	movl	%eax, 12(%rsp)
	call	tmr_run
.LVL315:
	.loc 1 1554 0
	movl	12(%rsp), %eax
	.loc 1 1581 0
	addq	$16, %rsp
	.cfi_remember_state
	.cfi_def_cfa_offset 32
	popq	%rbx
	.cfi_def_cfa_offset 24
.LVL316:
	popq	%rbp
	.cfi_def_cfa_offset 16
.LVL317:
	popq	%r12
	.cfi_def_cfa_offset 8
.LVL318:
	ret
.LVL319:
	.p2align 4,,10
	.p2align 3
.L286:
	.cfi_restore_state
	.loc 1 1536 0
	movl	$720, %edi
	call	malloc
.LVL320:
	.loc 1 1537 0
	testq	%rax, %rax
	.loc 1 1536 0
	movq	%rax, 8(%rbx)
	.loc 1 1537 0
	je	.L288
	.loc 1 1542 0
	movl	$0, (%rax)
	.loc 1 1543 0
	addl	$1, httpd_conn_count(%rip)
	movq	%rax, %rdx
	jmp	.L272
.LVL321:
	.p2align 4,,10
	.p2align 3
.L285:
	.loc 1 1522 0
	xorl	%eax, %eax
	movl	$.LC81, %esi
	movl	$4, %edi
	call	syslog
.LVL322:
	.loc 1 1523 0
	movq	%r12, %rdi
	call	tmr_run
.LVL323:
	.loc 1 1524 0
	xorl	%eax, %eax
	jmp	.L269
.L270:
	.loc 1 1529 0
	movl	$2, %edi
	movl	$.LC82, %esi
	xorl	%eax, %eax
	call	syslog
.LVL324:
	.loc 1 1530 0
	movl	$1, %edi
	call	exit
.LVL325:
.L288:
	.loc 1 1539 0
	movl	$2, %edi
	movl	$.LC83, %esi
	call	syslog
.LVL326:
	.loc 1 1540 0
	movl	$1, %edi
	call	exit
.LVL327:
	.cfi_endproc
.LFE19:
	.size	handle_newconnect, .-handle_newconnect
	.section	.rodata.str1.8
	.align 8
.LC84:
	.string	"throttle sending count was negative - shouldn't happen!"
	.text
	.p2align 4,,15
	.type	check_throttles, @function
check_throttles:
.LFB23:
	.loc 1 1883 0
	.cfi_startproc
.LVL328:
	pushq	%r12
	.cfi_def_cfa_offset 16
	.cfi_offset 12, -16
	.loc 1 1889 0
	movl	numthrottles(%rip), %eax
	xorl	%r12d, %r12d
	.loc 1 1883 0
	pushq	%rbp
	.cfi_def_cfa_offset 24
	.cfi_offset 6, -24
	.loc 1 1889 0
	xorl	%ebp, %ebp
	testl	%eax, %eax
	.loc 1 1883 0
	pushq	%rbx
	.cfi_def_cfa_offset 32
	.cfi_offset 3, -32
	.loc 1 1883 0
	movq	%rdi, %rbx
	.loc 1 1887 0
	movl	$0, 56(%rdi)
	.loc 1 1888 0
	movq	$-1, 72(%rdi)
	movq	$-1, 64(%rdi)
.LVL329:
	.loc 1 1889 0
	jg	.L304
	jmp	.L298
.LVL330:
	.p2align 4,,10
	.p2align 3
.L309:
	leal	1(%rdx), %r8d
	movslq	%r8d, %rdi
.L294:
	.loc 1 1904 0
	movslq	56(%rbx), %rdx
	leal	1(%rdx), %r9d
	movl	%r9d, 56(%rbx)
	movl	%r12d, 16(%rbx,%rdx,4)
	.loc 1 1906 0
	cqto
	idivq	%rdi
.LVL331:
	.loc 1 1907 0
	movq	64(%rbx), %rdx
	.loc 1 1905 0
	movl	%r8d, 40(%rcx)
	.loc 1 1907 0
	cmpq	$-1, %rdx
	je	.L307
	.loc 1 1910 0
	cmpq	%rdx, %rax
	cmovg	%rdx, %rax
.LVL332:
.L307:
	movq	%rax, 64(%rbx)
.LVL333:
	.loc 1 1912 0
	movq	72(%rbx), %rax
	cmpq	$-1, %rax
	je	.L308
	.loc 1 1915 0
	cmpq	%rax, %rsi
	cmovl	%rax, %rsi
.LVL334:
.L308:
	movq	%rsi, 72(%rbx)
.L292:
	.loc 1 1890 0
	addl	$1, %r12d
.LVL335:
	.loc 1 1889 0
	cmpl	%r12d, numthrottles(%rip)
	jle	.L298
	addq	$48, %rbp
	.loc 1 1889 0 is_stmt 0 discriminator 2
	cmpl	$9, 56(%rbx)
	jg	.L298
.LVL336:
.L304:
	.loc 1 1891 0 is_stmt 1
	movq	8(%rbx), %rax
	movq	240(%rax), %rsi
	movq	throttles(%rip), %rax
	movq	(%rax,%rbp), %rdi
	call	match
.LVL337:
	testl	%eax, %eax
	je	.L292
	.loc 1 1894 0
	movq	%rbp, %rcx
	addq	throttles(%rip), %rcx
	movq	8(%rcx), %rax
	movq	24(%rcx), %rdx
	leaq	(%rax,%rax), %rsi
	cmpq	%rsi, %rdx
	jg	.L301
	.loc 1 1897 0
	movq	16(%rcx), %rsi
	cmpq	%rsi, %rdx
	jl	.L301
	.loc 1 1899 0
	movl	40(%rcx), %edx
	testl	%edx, %edx
	jns	.L309
	.loc 1 1901 0
	movl	$.LC84, %esi
	movl	$3, %edi
	xorl	%eax, %eax
	call	syslog
.LVL338:
	.loc 1 1902 0
	movq	%rbp, %rcx
	addq	throttles(%rip), %rcx
	movl	$1, %edi
	movl	$1, %r8d
	movl	$0, 40(%rcx)
	movq	8(%rcx), %rax
	movq	16(%rcx), %rsi
	jmp	.L294
.LVL339:
	.p2align 4,,10
	.p2align 3
.L298:
	.loc 1 1918 0
	popq	%rbx
	.cfi_remember_state
	.cfi_def_cfa_offset 24
.LVL340:
	popq	%rbp
	.cfi_def_cfa_offset 16
	.loc 1 1917 0
	movl	$1, %eax
	.loc 1 1918 0
	popq	%r12
	.cfi_def_cfa_offset 8
	ret
.LVL341:
	.p2align 4,,10
	.p2align 3
.L301:
	.cfi_restore_state
	popq	%rbx
	.cfi_def_cfa_offset 24
.LVL342:
	popq	%rbp
	.cfi_def_cfa_offset 16
	.loc 1 1895 0
	xorl	%eax, %eax
	.loc 1 1918 0
	popq	%r12
	.cfi_def_cfa_offset 8
.LVL343:
	ret
	.cfi_endproc
.LFE23:
	.size	check_throttles, .-check_throttles
	.p2align 4,,15
	.type	shut_down, @function
shut_down:
.LFB18:
	.loc 1 1467 0
	.cfi_startproc
	pushq	%r12
	.cfi_def_cfa_offset 16
	.cfi_offset 12, -16
	.loc 1 1471 0
	xorl	%esi, %esi
	.loc 1 1467 0
	pushq	%rbp
	.cfi_def_cfa_offset 24
	.cfi_offset 6, -24
	.loc 1 1473 0
	xorl	%ebp, %ebp
	.loc 1 1467 0
	pushq	%rbx
	.cfi_def_cfa_offset 32
	.cfi_offset 3, -32
	.loc 1 1473 0
	xorl	%ebx, %ebx
	.loc 1 1467 0
	subq	$32, %rsp
	.cfi_def_cfa_offset 64
	.loc 1 1471 0
	movq	%rsp, %rdi
	.loc 1 1467 0
	movq	%fs:40, %rax
	movq	%rax, 24(%rsp)
	xorl	%eax, %eax
	.loc 1 1471 0
	call	gettimeofday
.LVL344:
	.loc 1 1472 0
	movq	%rsp, %rdi
	call	logstats
.LVL345:
	.loc 1 1473 0
	movl	max_connects(%rip), %ecx
	testl	%ecx, %ecx
	jg	.L330
	jmp	.L316
.LVL346:
	.p2align 4,,10
	.p2align 3
.L314:
	.loc 1 1477 0
	movq	8(%rax), %rdi
	testq	%rdi, %rdi
	je	.L315
	.loc 1 1479 0
	call	httpd_destroy_conn
.LVL347:
	.loc 1 1480 0
	movq	%rbx, %r12
	addq	connects(%rip), %r12
	movq	8(%r12), %rdi
	call	free
.LVL348:
	.loc 1 1481 0
	subl	$1, httpd_conn_count(%rip)
	.loc 1 1482 0
	movq	$0, 8(%r12)
.L315:
	.loc 1 1473 0
	addl	$1, %ebp
.LVL349:
	addq	$144, %rbx
	cmpl	%ebp, max_connects(%rip)
	jle	.L316
.LVL350:
.L330:
	.loc 1 1475 0
	movq	%rbx, %rax
	addq	connects(%rip), %rax
	movl	(%rax), %edx
	testl	%edx, %edx
	je	.L314
	.loc 1 1476 0
	movq	8(%rax), %rdi
	movq	%rsp, %rsi
	call	httpd_close_conn
.LVL351:
	movq	%rbx, %rax
	addq	connects(%rip), %rax
	jmp	.L314
.LVL352:
	.p2align 4,,10
	.p2align 3
.L316:
	.loc 1 1485 0
	movq	hs(%rip), %rbx
	testq	%rbx, %rbx
	je	.L313
.LVL353:
.LBB2:
	.loc 1 1489 0
	movl	72(%rbx), %edi
	.loc 1 1488 0
	movq	$0, hs(%rip)
	.loc 1 1489 0
	cmpl	$-1, %edi
	je	.L318
	.loc 1 1490 0
	call	fdwatch_del_fd
.LVL354:
.L318:
	.loc 1 1491 0
	movl	76(%rbx), %edi
	cmpl	$-1, %edi
	je	.L319
	.loc 1 1492 0
	call	fdwatch_del_fd
.LVL355:
.L319:
	.loc 1 1493 0
	movq	%rbx, %rdi
	call	httpd_terminate
.LVL356:
.L313:
.LBE2:
	.loc 1 1495 0
	call	mmc_destroy
.LVL357:
	.loc 1 1496 0
	call	tmr_destroy
.LVL358:
	.loc 1 1497 0
	movq	connects(%rip), %rdi
	call	free
.LVL359:
	.loc 1 1498 0
	movq	throttles(%rip), %rdi
	testq	%rdi, %rdi
	je	.L310
	.loc 1 1499 0
	call	free
.LVL360:
.L310:
	.loc 1 1500 0
	movq	24(%rsp), %rax
	xorq	%fs:40, %rax
	jne	.L336
	addq	$32, %rsp
	.cfi_remember_state
	.cfi_def_cfa_offset 32
	popq	%rbx
	.cfi_def_cfa_offset 24
	popq	%rbp
	.cfi_def_cfa_offset 16
	popq	%r12
	.cfi_def_cfa_offset 8
	ret
.L336:
	.cfi_restore_state
	call	__stack_chk_fail
.LVL361:
	.cfi_endproc
.LFE18:
	.size	shut_down, .-shut_down
	.section	.rodata.str1.1
.LC85:
	.string	"exiting"
	.text
	.p2align 4,,15
	.type	handle_usr1, @function
handle_usr1:
.LFB5:
	.loc 1 257 0
	.cfi_startproc
.LVL362:
	.loc 1 260 0
	movl	num_connects(%rip), %edx
	testl	%edx, %edx
	je	.L340
	.loc 1 273 0
	movl	$1, got_usr1(%rip)
	ret
.L340:
	.loc 1 257 0
	pushq	%rax
	.cfi_def_cfa_offset 16
	.loc 1 266 0
	call	shut_down
.LVL363:
	.loc 1 267 0
	movl	$5, %edi
	movl	$.LC85, %esi
	xorl	%eax, %eax
	call	syslog
.LVL364:
	.loc 1 268 0
	call	closelog
.LVL365:
	.loc 1 269 0
	xorl	%edi, %edi
	call	exit
.LVL366:
	.cfi_endproc
.LFE5:
	.size	handle_usr1, .-handle_usr1
	.section	.rodata.str1.1
.LC86:
	.string	"exiting due to signal %d"
	.text
	.p2align 4,,15
	.type	handle_term, @function
handle_term:
.LFB2:
	.loc 1 172 0
	.cfi_startproc
.LVL367:
	pushq	%rbx
	.cfi_def_cfa_offset 16
	.cfi_offset 3, -16
	.loc 1 172 0
	movl	%edi, %ebx
	.loc 1 175 0
	call	shut_down
.LVL368:
	.loc 1 176 0
	movl	$5, %edi
	movl	%ebx, %edx
	movl	$.LC86, %esi
	xorl	%eax, %eax
	call	syslog
.LVL369:
	.loc 1 177 0
	call	closelog
.LVL370:
	.loc 1 178 0
	movl	$1, %edi
	call	exit
.LVL371:
	.cfi_endproc
.LFE2:
	.size	handle_term, .-handle_term
	.p2align 4,,15
	.type	clear_throttles.isra.0, @function
clear_throttles.isra.0:
.LFB36:
	.loc 1 1922 0
	.cfi_startproc
.LVL372:
	.loc 1 1926 0
	movl	56(%rdi), %eax
	testl	%eax, %eax
	jle	.L343
	subl	$1, %eax
	movq	throttles(%rip), %rdx
	leaq	4(%rdi,%rax,4), %rcx
.LVL373:
	.p2align 4,,10
	.p2align 3
.L346:
	.loc 1 1927 0
	movslq	16(%rdi), %rax
	addq	$4, %rdi
	leaq	(%rax,%rax,2), %rax
	salq	$4, %rax
	subl	$1, 40(%rdx,%rax)
	.loc 1 1926 0
	cmpq	%rcx, %rdi
	jne	.L346
.L343:
	rep ret
	.cfi_endproc
.LFE36:
	.size	clear_throttles.isra.0, .-clear_throttles.isra.0
	.p2align 4,,15
	.type	really_clear_connection, @function
really_clear_connection:
.LFB28:
	.loc 1 2048 0
	.cfi_startproc
.LVL374:
	pushq	%rbx
	.cfi_def_cfa_offset 16
	.cfi_offset 3, -16
	movq	%rdi, %rbx
	subq	$16, %rsp
	.cfi_def_cfa_offset 32
	.loc 1 2049 0
	movq	8(%rdi), %rdi
.LVL375:
	movq	200(%rdi), %rax
	addq	%rax, stats_bytes(%rip)
	.loc 1 2050 0
	cmpl	$3, (%rbx)
	je	.L348
	.loc 1 2051 0
	movl	704(%rdi), %edi
	movq	%rsi, 8(%rsp)
	call	fdwatch_del_fd
.LVL376:
	movq	8(%rbx), %rdi
	movq	8(%rsp), %rsi
.LVL377:
.L348:
	.loc 1 2052 0
	call	httpd_close_conn
.LVL378:
	.loc 1 2053 0
	movq	%rbx, %rdi
	call	clear_throttles.isra.0
.LVL379:
	.loc 1 2054 0
	movq	104(%rbx), %rdi
	testq	%rdi, %rdi
	je	.L349
	.loc 1 2056 0
	call	tmr_cancel
.LVL380:
	.loc 1 2057 0
	movq	$0, 104(%rbx)
.L349:
	.loc 1 2060 0
	movl	first_free_connect(%rip), %eax
	.loc 1 2059 0
	movl	$0, (%rbx)
	.loc 1 2062 0
	subl	$1, num_connects(%rip)
	.loc 1 2060 0
	movl	%eax, 4(%rbx)
	.loc 1 2061 0
	subq	connects(%rip), %rbx
.LVL381:
	movabsq	$-8198552921648689607, %rax
	sarq	$4, %rbx
	imulq	%rax, %rbx
	movl	%ebx, first_free_connect(%rip)
	.loc 1 2063 0
	addq	$16, %rsp
	.cfi_def_cfa_offset 16
	popq	%rbx
	.cfi_def_cfa_offset 8
	ret
	.cfi_endproc
.LFE28:
	.size	really_clear_connection, .-really_clear_connection
	.section	.rodata.str1.8
	.align 8
.LC87:
	.string	"replacing non-null linger_timer!"
	.align 8
.LC88:
	.string	"tmr_create(linger_clear_connection) failed"
	.text
	.p2align 4,,15
	.type	clear_connection, @function
clear_connection:
.LFB27:
	.loc 1 1996 0
	.cfi_startproc
.LVL382:
	pushq	%rbp
	.cfi_def_cfa_offset 16
	.cfi_offset 6, -16
	movq	%rsi, %rbp
	pushq	%rbx
	.cfi_def_cfa_offset 24
	.cfi_offset 3, -24
	movq	%rdi, %rbx
	subq	$8, %rsp
	.cfi_def_cfa_offset 32
	.loc 1 1999 0
	movq	96(%rdi), %rdi
.LVL383:
	testq	%rdi, %rdi
	je	.L355
	.loc 1 2001 0
	call	tmr_cancel
.LVL384:
	.loc 1 2002 0
	movq	$0, 96(%rbx)
.L355:
	.loc 1 2016 0
	cmpl	$4, (%rbx)
	je	.L356
	movq	8(%rbx), %rax
	.loc 1 2023 0
	movl	556(%rax), %edx
	testl	%edx, %edx
	je	.L358
	.loc 1 2025 0
	cmpl	$3, (%rbx)
	je	.L359
	.loc 1 2026 0
	movl	704(%rax), %edi
	call	fdwatch_del_fd
.LVL385:
	movq	8(%rbx), %rax
.L359:
	.loc 1 2028 0
	movl	704(%rax), %edi
	movl	$1, %esi
	.loc 1 2027 0
	movl	$4, (%rbx)
	.loc 1 2028 0
	call	shutdown
.LVL386:
	.loc 1 2029 0
	movq	8(%rbx), %rax
	xorl	%edx, %edx
	movq	%rbx, %rsi
	movl	704(%rax), %edi
	call	fdwatch_add_fd
.LVL387:
	.loc 1 2031 0
	cmpq	$0, 104(%rbx)
	je	.L360
	.loc 1 2032 0
	movl	$.LC87, %esi
	movl	$3, %edi
	xorl	%eax, %eax
	call	syslog
.LVL388:
.L360:
	.loc 1 2033 0
	xorl	%r8d, %r8d
	movl	$500, %ecx
	movq	%rbx, %rdx
	movl	$linger_clear_connection, %esi
	movq	%rbp, %rdi
	call	tmr_create
.LVL389:
	.loc 1 2035 0
	testq	%rax, %rax
	.loc 1 2033 0
	movq	%rax, 104(%rbx)
	.loc 1 2035 0
	je	.L366
	.loc 1 2043 0
	addq	$8, %rsp
	.cfi_remember_state
	.cfi_def_cfa_offset 24
	popq	%rbx
	.cfi_def_cfa_offset 16
.LVL390:
	popq	%rbp
	.cfi_def_cfa_offset 8
.LVL391:
	ret
.LVL392:
	.p2align 4,,10
	.p2align 3
.L356:
	.cfi_restore_state
	.loc 1 2019 0
	movq	104(%rbx), %rdi
	call	tmr_cancel
.LVL393:
	.loc 1 2021 0
	movq	8(%rbx), %rax
	.loc 1 2020 0
	movq	$0, 104(%rbx)
	.loc 1 2021 0
	movl	$0, 556(%rax)
.L358:
	.loc 1 2043 0
	addq	$8, %rsp
	.cfi_remember_state
	.cfi_def_cfa_offset 24
	.loc 1 2042 0
	movq	%rbx, %rdi
	movq	%rbp, %rsi
	.loc 1 2043 0
	popq	%rbx
	.cfi_def_cfa_offset 16
.LVL394:
	popq	%rbp
	.cfi_def_cfa_offset 8
.LVL395:
	.loc 1 2042 0
	jmp	really_clear_connection
.LVL396:
.L366:
	.cfi_restore_state
	.loc 1 2037 0
	movl	$2, %edi
	movl	$.LC88, %esi
	call	syslog
.LVL397:
	.loc 1 2038 0
	movl	$1, %edi
	call	exit
.LVL398:
	.cfi_endproc
.LFE27:
	.size	clear_connection, .-clear_connection
	.p2align 4,,15
	.type	finish_connection, @function
finish_connection:
.LFB26:
	.loc 1 1985 0
	.cfi_startproc
.LVL399:
	pushq	%rbp
	.cfi_def_cfa_offset 16
	.cfi_offset 6, -16
	movq	%rsi, %rbp
	pushq	%rbx
	.cfi_def_cfa_offset 24
	.cfi_offset 3, -24
	movq	%rdi, %rbx
	subq	$8, %rsp
	.cfi_def_cfa_offset 32
	.loc 1 1987 0
	movq	8(%rdi), %rdi
.LVL400:
	call	httpd_write_response
.LVL401:
	.loc 1 1991 0
	addq	$8, %rsp
	.cfi_def_cfa_offset 24
	.loc 1 1990 0
	movq	%rbx, %rdi
	movq	%rbp, %rsi
	.loc 1 1991 0
	popq	%rbx
	.cfi_def_cfa_offset 16
.LVL402:
	popq	%rbp
	.cfi_def_cfa_offset 8
.LVL403:
	.loc 1 1990 0
	jmp	clear_connection
.LVL404:
	.cfi_endproc
.LFE26:
	.size	finish_connection, .-finish_connection
	.p2align 4,,15
	.type	handle_read, @function
handle_read:
.LFB20:
	.loc 1 1586 0
	.cfi_startproc
.LVL405:
	pushq	%r12
	.cfi_def_cfa_offset 16
	.cfi_offset 12, -16
	movq	%rsi, %r12
	pushq	%rbp
	.cfi_def_cfa_offset 24
	.cfi_offset 6, -24
	movq	%rdi, %rbp
	pushq	%rbx
	.cfi_def_cfa_offset 32
	.cfi_offset 3, -32
	.loc 1 1589 0
	movq	8(%rdi), %rbx
.LVL406:
	.loc 1 1592 0
	movq	160(%rbx), %rax
	movq	152(%rbx), %rdx
	cmpq	%rdx, %rax
	jb	.L370
	.loc 1 1594 0
	cmpq	$5000, %rdx
	jbe	.L371
.LVL407:
.L396:
	.loc 1 1637 0
	movq	httpd_err400form(%rip), %r8
	movq	httpd_err400title(%rip), %rdx
	movl	$.LC44, %r9d
	movq	%r9, %rcx
	movl	$400, %esi
	movq	%rbx, %rdi
	call	httpd_send_err
.LVL408:
.L395:
	.loc 1 1703 0
	popq	%rbx
	.cfi_remember_state
	.cfi_def_cfa_offset 24
.LVL409:
.LBB3:
	.loc 1 1685 0
	movq	%rbp, %rdi
	movq	%r12, %rsi
.LBE3:
	.loc 1 1703 0
	popq	%rbp
	.cfi_def_cfa_offset 16
.LVL410:
	popq	%r12
	.cfi_def_cfa_offset 8
.LVL411:
.LBB4:
	.loc 1 1685 0
	jmp	finish_connection
.LVL412:
	.p2align 4,,10
	.p2align 3
.L371:
	.cfi_restore_state
.LBE4:
	.loc 1 1600 0
	leaq	152(%rbx), %rsi
.LVL413:
	leaq	144(%rbx), %rdi
.LVL414:
	addq	$1000, %rdx
	call	httpd_realloc_str
.LVL415:
	movq	152(%rbx), %rdx
	movq	160(%rbx), %rax
.L370:
	.loc 1 1605 0
	subq	%rax, %rdx
	addq	144(%rbx), %rax
	movl	704(%rbx), %edi
	movq	%rax, %rsi
	call	read
.LVL416:
	.loc 1 1608 0
	testl	%eax, %eax
	je	.L396
	.loc 1 1614 0
	js	.L397
	.loc 1 1628 0
	cltq
	addq	%rax, 160(%rbx)
	.loc 1 1629 0
	movq	(%r12), %rax
.LVL417:
	.loc 1 1632 0
	movq	%rbx, %rdi
	.loc 1 1629 0
	movq	%rax, 88(%rbp)
	.loc 1 1632 0
	call	httpd_got_request
.LVL418:
	testl	%eax, %eax
	je	.L369
	cmpl	$2, %eax
	je	.L396
	.loc 1 1643 0
	movq	%rbx, %rdi
	call	httpd_parse_request
.LVL419:
	testl	%eax, %eax
	js	.L395
	.loc 1 1650 0
	movq	%rbp, %rdi
	call	check_throttles
.LVL420:
	testl	%eax, %eax
	je	.L398
	.loc 1 1659 0
	movq	%r12, %rsi
	movq	%rbx, %rdi
	call	httpd_start_request
.LVL421:
	testl	%eax, %eax
	js	.L395
	.loc 1 1667 0
	movl	528(%rbx), %eax
	testl	%eax, %eax
	je	.L380
	.loc 1 1669 0
	movq	536(%rbx), %rax
	movq	%rax, 136(%rbp)
	.loc 1 1670 0
	movq	544(%rbx), %rax
	addq	$1, %rax
	movq	%rax, 128(%rbp)
.L381:
	.loc 1 1678 0
	cmpq	$0, 712(%rbx)
	je	.L399
	.loc 1 1688 0
	movq	128(%rbp), %rax
	cmpq	%rax, 136(%rbp)
	jge	.L395
	.loc 1 1697 0
	movq	(%r12), %rax
	.loc 1 1701 0
	movl	704(%rbx), %edi
	.loc 1 1696 0
	movl	$2, 0(%rbp)
	.loc 1 1698 0
	movq	$0, 112(%rbp)
.LVL422:
	.loc 1 1697 0
	movq	%rax, 80(%rbp)
	.loc 1 1701 0
	call	fdwatch_del_fd
.LVL423:
	.loc 1 1702 0
	movl	704(%rbx), %edi
	movq	%rbp, %rsi
	movl	$1, %edx
	.loc 1 1703 0
	popq	%rbx
	.cfi_remember_state
	.cfi_def_cfa_offset 24
.LVL424:
	popq	%rbp
	.cfi_def_cfa_offset 16
.LVL425:
	popq	%r12
	.cfi_def_cfa_offset 8
.LVL426:
	.loc 1 1702 0
	jmp	fdwatch_add_fd
.LVL427:
	.p2align 4,,10
	.p2align 3
.L397:
	.cfi_restore_state
	.loc 1 1621 0
	call	__errno_location
.LVL428:
	movl	(%rax), %eax
	cmpl	$11, %eax
	jne	.L400
.L369:
	.loc 1 1703 0
	popq	%rbx
	.cfi_remember_state
	.cfi_def_cfa_offset 24
.LVL429:
	popq	%rbp
	.cfi_def_cfa_offset 16
.LVL430:
	popq	%r12
	.cfi_def_cfa_offset 8
.LVL431:
	ret
.LVL432:
	.p2align 4,,10
	.p2align 3
.L400:
	.cfi_restore_state
	.loc 1 1621 0
	cmpl	$4, %eax
	je	.L369
	.p2align 4,,5
	jmp	.L396
	.p2align 4,,10
	.p2align 3
.L398:
	.loc 1 1652 0
	movq	208(%rbx), %r9
	movq	httpd_err503form(%rip), %r8
	movl	$.LC44, %ecx
	movq	httpd_err503title(%rip), %rdx
	movl	$503, %esi
	movq	%rbx, %rdi
	call	httpd_send_err
.LVL433:
	jmp	.L395
	.p2align 4,,10
	.p2align 3
.L380:
	.loc 1 1672 0
	movq	192(%rbx), %rdx
	.loc 1 1673 0
	xorl	%eax, %eax
	testq	%rdx, %rdx
	cmovns	%rdx, %rax
	movq	%rax, 128(%rbp)
	jmp	.L381
.L399:
.LVL434:
.LBB5:
	.loc 1 1682 0 discriminator 1
	movl	56(%rbp), %eax
	testl	%eax, %eax
	jle	.L401
	subl	$1, %eax
	movq	throttles(%rip), %rcx
	movq	200(%rbx), %rsi
	leaq	4(%rbp,%rax,4), %rdi
	movq	%rbp, %rdx
.LVL435:
	.p2align 4,,10
	.p2align 3
.L386:
	.loc 1 1683 0 discriminator 2
	movslq	16(%rdx), %rax
	addq	$4, %rdx
	leaq	(%rax,%rax,2), %rax
	salq	$4, %rax
	addq	%rsi, 32(%rcx,%rax)
	.loc 1 1682 0 discriminator 2
	cmpq	%rdi, %rdx
	jne	.L386
.L385:
	.loc 1 1684 0
	movq	%rsi, 136(%rbp)
	jmp	.L395
.LVL436:
.L401:
	movq	200(%rbx), %rsi
	jmp	.L385
.LBE5:
	.cfi_endproc
.LFE20:
	.size	handle_read, .-handle_read
	.section	.rodata.str1.8
	.align 8
.LC89:
	.string	"%.80s connection timed out reading"
	.align 8
.LC90:
	.string	"%.80s connection timed out sending"
	.text
	.p2align 4,,15
	.type	idle, @function
idle:
.LFB29:
	.loc 1 2068 0
	.cfi_startproc
.LVL437:
	pushq	%r13
	.cfi_def_cfa_offset 16
	.cfi_offset 13, -16
	movq	%rsi, %r13
	pushq	%r12
	.cfi_def_cfa_offset 24
	.cfi_offset 12, -24
	.loc 1 2072 0
	xorl	%r12d, %r12d
	.loc 1 2068 0
	pushq	%rbp
	.cfi_def_cfa_offset 32
	.cfi_offset 6, -32
	.loc 1 2072 0
	xorl	%ebp, %ebp
	.loc 1 2068 0
	pushq	%rbx
	.cfi_def_cfa_offset 40
	.cfi_offset 3, -40
	subq	$8, %rsp
	.cfi_def_cfa_offset 48
	.loc 1 2072 0
	movl	max_connects(%rip), %eax
	testl	%eax, %eax
	jg	.L409
	jmp	.L402
.LVL438:
	.p2align 4,,10
	.p2align 3
.L413:
	.loc 1 2075 0
	jl	.L404
	cmpl	$3, %eax
	.p2align 4,,8
	jg	.L404
	.loc 1 2090 0
	movq	0(%r13), %rax
	subq	88(%rbx), %rax
	cmpq	$299, %rax
	jg	.L412
.L404:
	.loc 1 2072 0
	addl	$1, %r12d
.LVL439:
	addq	$144, %rbp
	cmpl	%r12d, max_connects(%rip)
	jle	.L402
.LVL440:
.L409:
	.loc 1 2074 0
	movq	%rbp, %rbx
	addq	connects(%rip), %rbx
.LVL441:
	.loc 1 2075 0
	movl	(%rbx), %eax
	cmpl	$1, %eax
	jne	.L413
	.loc 1 2078 0
	movq	0(%r13), %rax
	subq	88(%rbx), %rax
	cmpq	$59, %rax
	jle	.L404
	.loc 1 2080 0
	movq	8(%rbx), %rax
	leaq	16(%rax), %rdi
.LVL442:
	call	httpd_ntoa
.LVL443:
	movl	$.LC89, %esi
	movq	%rax, %rdx
	movl	$6, %edi
	xorl	%eax, %eax
	call	syslog
.LVL444:
	.loc 1 2083 0
	movq	8(%rbx), %rdi
	movq	httpd_err408form(%rip), %r8
	movl	$.LC44, %r9d
	movq	httpd_err408title(%rip), %rdx
	movq	%r9, %rcx
	movl	$408, %esi
	call	httpd_send_err
.LVL445:
	.loc 1 2085 0
	movq	%r13, %rsi
	movq	%rbx, %rdi
	call	finish_connection
.LVL446:
	jmp	.L404
.LVL447:
	.p2align 4,,10
	.p2align 3
.L402:
	.loc 1 2100 0
	addq	$8, %rsp
	.cfi_remember_state
	.cfi_def_cfa_offset 40
	popq	%rbx
	.cfi_def_cfa_offset 32
	popq	%rbp
	.cfi_def_cfa_offset 24
	popq	%r12
	.cfi_def_cfa_offset 16
	popq	%r13
	.cfi_def_cfa_offset 8
.LVL448:
	ret
.LVL449:
	.p2align 4,,10
	.p2align 3
.L412:
	.cfi_restore_state
	.loc 1 2092 0
	movq	8(%rbx), %rax
	leaq	16(%rax), %rdi
.LVL450:
	call	httpd_ntoa
.LVL451:
	movl	$.LC90, %esi
	movq	%rax, %rdx
	movl	$6, %edi
	xorl	%eax, %eax
	call	syslog
.LVL452:
	.loc 1 2095 0
	movq	%r13, %rsi
	movq	%rbx, %rdi
	call	clear_connection
.LVL453:
	jmp	.L404
	.cfi_endproc
.LFE29:
	.size	idle, .-idle
	.section	.rodata.str1.8
	.align 8
.LC91:
	.string	"replacing non-null wakeup_timer!"
	.align 8
.LC92:
	.string	"tmr_create(wakeup_connection) failed"
	.section	.rodata.str1.1
.LC93:
	.string	"write - %m sending %.80s"
	.text
	.p2align 4,,15
	.type	handle_send, @function
handle_send:
.LFB21:
	.loc 1 1708 0
	.cfi_startproc
.LVL454:
	pushq	%r13
	.cfi_def_cfa_offset 16
	.cfi_offset 13, -16
	pushq	%r12
	.cfi_def_cfa_offset 24
	.cfi_offset 12, -24
	pushq	%rbp
	.cfi_def_cfa_offset 32
	.cfi_offset 6, -32
	movq	%rsi, %rbp
	pushq	%rbx
	.cfi_def_cfa_offset 40
	.cfi_offset 3, -40
	movq	%rdi, %rbx
	subq	$56, %rsp
	.cfi_def_cfa_offset 96
	.loc 1 1716 0
	movq	64(%rdi), %rdx
	.loc 1 1713 0
	movq	8(%rdi), %r12
.LVL455:
	.loc 1 1708 0
	movq	%fs:40, %rax
	movq	%rax, 40(%rsp)
	xorl	%eax, %eax
	.loc 1 1717 0
	movl	$1000000000, %eax
	.loc 1 1716 0
	cmpq	$-1, %rdx
	je	.L415
	.loc 1 1719 0
	leaq	3(%rdx), %rax
	testq	%rdx, %rdx
	cmovns	%rdx, %rax
	sarq	$2, %rax
.LVL456:
.L415:
	.loc 1 1722 0
	movq	472(%r12), %rdx
	testq	%rdx, %rdx
	jne	.L416
	.loc 1 1727 0
	movq	136(%rbx), %rsi
.LVL457:
	movq	128(%rbx), %rdx
	.loc 1 1725 0
	movl	704(%r12), %edi
.LVL458:
	.loc 1 1727 0
	subq	%rsi, %rdx
	.loc 1 1725 0
	cmpq	%rdx, %rax
	cmovbe	%rax, %rdx
	addq	712(%r12), %rsi
	call	write
.LVL459:
	.loc 1 1743 0
	testl	%eax, %eax
	js	.L474
.L418:
	.loc 1 1746 0
	je	.L421
	.loc 1 1795 0
	movq	0(%rbp), %rdx
	movq	%rdx, 88(%rbx)
	.loc 1 1797 0
	movq	472(%r12), %rdx
	testq	%rdx, %rdx
	je	.L473
	.loc 1 1800 0
	movslq	%eax, %rcx
	cmpq	%rcx, %rdx
	ja	.L475
	.loc 1 1811 0
	subl	%edx, %eax
.LVL460:
	.loc 1 1812 0
	movq	$0, 472(%r12)
.L473:
	movslq	%eax, %rsi
.LVL461:
.L428:
	.loc 1 1817 0
	movq	8(%rbx), %rcx
	.loc 1 1816 0
	movq	%rsi, %rdx
	.loc 1 1817 0
	movq	%rsi, %rax
	.loc 1 1816 0
	addq	136(%rbx), %rdx
	.loc 1 1817 0
	addq	200(%rcx), %rax
	.loc 1 1816 0
	movq	%rdx, 136(%rbx)
	.loc 1 1817 0
	movq	%rax, 200(%rcx)
.LVL462:
	.loc 1 1818 0
	movl	56(%rbx), %ecx
	testl	%ecx, %ecx
	jle	.L433
	subl	$1, %ecx
	movq	throttles(%rip), %r9
	movq	%rbx, %r8
	leaq	4(%rbx,%rcx,4), %rdi
.LVL463:
	.p2align 4,,10
	.p2align 3
.L434:
	.loc 1 1819 0 discriminator 2
	movslq	16(%r8), %rcx
	addq	$4, %r8
	leaq	(%rcx,%rcx,2), %rcx
	salq	$4, %rcx
	addq	%rsi, 32(%r9,%rcx)
	.loc 1 1818 0 discriminator 2
	cmpq	%rdi, %r8
	jne	.L434
.L433:
	.loc 1 1822 0
	cmpq	128(%rbx), %rdx
	jge	.L476
	.loc 1 1830 0
	movq	112(%rbx), %rdx
	cmpq	$100, %rdx
	jg	.L477
.L435:
	.loc 1 1834 0
	movq	64(%rbx), %rcx
	cmpq	$-1, %rcx
	je	.L414
	.loc 1 1836 0
	movq	0(%rbp), %r13
.LVL464:
	.loc 1 1838 0
	subq	80(%rbx), %r13
.LVL465:
	movl	$1, %edx
	cmove	%rdx, %r13
.LVL466:
	.loc 1 1839 0
	cqto
	idivq	%r13
	cmpq	%rax, %rcx
	jge	.L414
	.loc 1 1842 0
	movl	704(%r12), %edi
	.loc 1 1841 0
	movl	$3, (%rbx)
	.loc 1 1842 0
	call	fdwatch_del_fd
.LVL467:
	.loc 1 1846 0
	movq	8(%rbx), %rax
	movq	200(%rax), %rax
	cqto
	idivq	64(%rbx)
	movl	%eax, %r12d
.LVL468:
	subl	%r13d, %r12d
.LVL469:
	.loc 1 1848 0
	cmpq	$0, 96(%rbx)
	je	.L438
	.loc 1 1849 0
	movl	$.LC91, %esi
	movl	$3, %edi
	xorl	%eax, %eax
	call	syslog
.LVL470:
.L438:
	.loc 1 1850 0
	testl	%r12d, %r12d
	movl	$500, %ecx
	jle	.L472
	.loc 1 1852 0
	movslq	%r12d, %rcx
	.loc 1 1850 0
	imulq	$1000, %rcx, %rcx
	jmp	.L472
.LVL471:
	.p2align 4,,10
	.p2align 3
.L416:
.LBB6:
	.loc 1 1736 0
	movq	368(%r12), %rcx
	.loc 1 1737 0
	movq	%rdx, 8(%rsp)
	.loc 1 1740 0
	movq	%rsp, %rsi
.LVL472:
	movl	704(%r12), %edi
	.loc 1 1736 0
	movq	%rcx, (%rsp)
	.loc 1 1738 0
	movq	136(%rbx), %rcx
	movq	%rcx, %rdx
	addq	712(%r12), %rdx
	movq	%rdx, 16(%rsp)
	.loc 1 1739 0
	movq	128(%rbx), %rdx
	subq	%rcx, %rdx
	cmpq	%rdx, %rax
	cmova	%rdx, %rax
.LVL473:
	.loc 1 1740 0
	movl	$2, %edx
	.loc 1 1739 0
	movq	%rax, 24(%rsp)
	.loc 1 1740 0
	call	writev
.LVL474:
.LBE6:
	.loc 1 1743 0
	testl	%eax, %eax
	jns	.L418
.L474:
	.loc 1 1743 0 is_stmt 0 discriminator 1
	call	__errno_location
.LVL475:
	movl	(%rax), %eax
	cmpl	$4, %eax
	je	.L414
	.loc 1 1747 0 is_stmt 1
	cmpl	$11, %eax
	je	.L421
	.loc 1 1788 0
	cmpl	$32, %eax
	je	.L425
	cmpl	$22, %eax
	.p2align 4,,2
	je	.L425
	.loc 1 1788 0 is_stmt 0 discriminator 1
	cmpl	$104, %eax
	.p2align 4,,2
	je	.L425
	.loc 1 1789 0 is_stmt 1
	movq	208(%r12), %rdx
	movl	$.LC93, %esi
	movl	$3, %edi
	xorl	%eax, %eax
	call	syslog
.LVL476:
.L425:
	.loc 1 1790 0
	movq	%rbp, %rsi
	movq	%rbx, %rdi
	call	clear_connection
.LVL477:
	.loc 1 1791 0
	jmp	.L414
	.p2align 4,,10
	.p2align 3
.L421:
	.loc 1 1759 0
	addq	$100, 112(%rbx)
	.loc 1 1761 0
	movl	704(%r12), %edi
	.loc 1 1760 0
	movl	$3, (%rbx)
	.loc 1 1761 0
	call	fdwatch_del_fd
.LVL478:
	.loc 1 1763 0
	cmpq	$0, 96(%rbx)
	je	.L424
	.loc 1 1764 0
	movl	$.LC91, %esi
	movl	$3, %edi
	xorl	%eax, %eax
	call	syslog
.LVL479:
.L424:
	.loc 1 1765 0
	movq	112(%rbx), %rcx
.LVL480:
.L472:
	xorl	%r8d, %r8d
	movq	%rbx, %rdx
	movl	$wakeup_connection, %esi
	movq	%rbp, %rdi
	call	tmr_create
.LVL481:
	.loc 1 1767 0
	testq	%rax, %rax
	.loc 1 1765 0
	movq	%rax, 96(%rbx)
	.loc 1 1767 0
	je	.L478
.L414:
	.loc 1 1861 0
	movq	40(%rsp), %rax
	xorq	%fs:40, %rax
	jne	.L479
	addq	$56, %rsp
	.cfi_remember_state
	.cfi_def_cfa_offset 40
	popq	%rbx
	.cfi_def_cfa_offset 32
.LVL482:
	popq	%rbp
	.cfi_def_cfa_offset 24
.LVL483:
	popq	%r12
	.cfi_def_cfa_offset 16
	popq	%r13
	.cfi_def_cfa_offset 8
	ret
.LVL484:
	.p2align 4,,10
	.p2align 3
.L477:
	.cfi_restore_state
	.loc 1 1831 0
	subq	$100, %rdx
	movq	%rdx, 112(%rbx)
	jmp	.L435
.LVL485:
	.p2align 4,,10
	.p2align 3
.L475:
.LBB7:
	.loc 1 1804 0
	movq	368(%r12), %rdi
	.loc 1 1803 0
	subl	%eax, %edx
.LVL486:
	.loc 1 1804 0
	movslq	%edx, %r13
	movq	%r13, %rdx
	leaq	(%rdi,%rcx), %rsi
	call	memmove
.LVL487:
	.loc 1 1805 0
	movq	%r13, 472(%r12)
.LVL488:
.LBE7:
	xorl	%esi, %esi
	jmp	.L428
.LVL489:
	.p2align 4,,10
	.p2align 3
.L476:
	.loc 1 1825 0
	movq	%rbp, %rsi
	movq	%rbx, %rdi
	call	finish_connection
.LVL490:
	.loc 1 1826 0
	jmp	.L414
.LVL491:
.L479:
	.loc 1 1861 0
	call	__stack_chk_fail
.LVL492:
.L478:
	.loc 1 1769 0
	movl	$2, %edi
	movl	$.LC92, %esi
	xorl	%eax, %eax
	call	syslog
.LVL493:
	.loc 1 1770 0
	movl	$1, %edi
	call	exit
.LVL494:
	.cfi_endproc
.LFE21:
	.size	handle_send, .-handle_send
	.p2align 4,,15
	.type	linger_clear_connection, @function
linger_clear_connection:
.LFB31:
	.loc 1 2119 0
	.cfi_startproc
.LVL495:
	.loc 1 2123 0
	movq	$0, 104(%rdi)
	.loc 1 2124 0
	jmp	really_clear_connection
.LVL496:
	.cfi_endproc
.LFE31:
	.size	linger_clear_connection, .-linger_clear_connection
	.p2align 4,,15
	.type	handle_linger, @function
handle_linger:
.LFB22:
	.loc 1 1866 0
	.cfi_startproc
.LVL497:
	pushq	%rbp
	.cfi_def_cfa_offset 16
	.cfi_offset 6, -16
	.loc 1 1873 0
	movl	$4096, %edx
	.loc 1 1866 0
	movq	%rsi, %rbp
	pushq	%rbx
	.cfi_def_cfa_offset 24
	.cfi_offset 3, -24
	movq	%rdi, %rbx
	subq	$4120, %rsp
	.cfi_def_cfa_offset 4144
	.loc 1 1866 0
	movq	%fs:40, %rax
	movq	%rax, 4104(%rsp)
	xorl	%eax, %eax
	.loc 1 1873 0
	movq	8(%rdi), %rax
	movq	%rsp, %rsi
.LVL498:
	movl	704(%rax), %edi
.LVL499:
	call	read
.LVL500:
	.loc 1 1874 0
	testl	%eax, %eax
	js	.L489
	.loc 1 1876 0
	je	.L484
.LVL501:
.L481:
	.loc 1 1878 0
	movq	4104(%rsp), %rax
	xorq	%fs:40, %rax
	.p2align 4,,7
	jne	.L490
	addq	$4120, %rsp
	.cfi_remember_state
	.cfi_def_cfa_offset 24
	popq	%rbx
	.cfi_def_cfa_offset 16
.LVL502:
	popq	%rbp
	.cfi_def_cfa_offset 8
.LVL503:
	ret
.LVL504:
	.p2align 4,,10
	.p2align 3
.L489:
	.cfi_restore_state
	.loc 1 1874 0 discriminator 1
	call	__errno_location
.LVL505:
	movl	(%rax), %eax
	cmpl	$11, %eax
	je	.L481
	cmpl	$4, %eax
	je	.L481
.L484:
	.loc 1 1877 0
	movq	%rbp, %rsi
	movq	%rbx, %rdi
	call	really_clear_connection
.LVL506:
	jmp	.L481
.L490:
	.loc 1 1878 0
	call	__stack_chk_fail
.LVL507:
	.cfi_endproc
.LFE22:
	.size	handle_linger, .-handle_linger
	.section	.rodata.str1.1
.LC94:
	.string	"%d"
.LC95:
	.string	"getaddrinfo %.80s - %.80s"
.LC96:
	.string	"%s: getaddrinfo %s - %s\n"
	.section	.rodata.str1.8
	.align 8
.LC97:
	.string	"%.80s - sockaddr too small (%lu < %lu)"
	.text
	.p2align 4,,15
	.type	lookup_hostname.constprop.1, @function
lookup_hostname.constprop.1:
.LFB37:
	.loc 1 1235 0
	.cfi_startproc
.LVL508:
	pushq	%r14
	.cfi_def_cfa_offset 16
	.cfi_offset 14, -16
	movq	%rdx, %r14
	.loc 1 1251 0
	movl	$.LC94, %edx
.LVL509:
	.loc 1 1235 0
	pushq	%r13
	.cfi_def_cfa_offset 24
	.cfi_offset 13, -24
	movq	%rcx, %r13
	.loc 1 1247 0
	movl	$6, %ecx
.LVL510:
	.loc 1 1235 0
	pushq	%r12
	.cfi_def_cfa_offset 32
	.cfi_offset 12, -32
	movq	%rsi, %r12
	.loc 1 1251 0
	movl	$10, %esi
.LVL511:
	.loc 1 1235 0
	pushq	%rbp
	.cfi_def_cfa_offset 40
	.cfi_offset 6, -40
	movq	%rdi, %rbp
	pushq	%rbx
	.cfi_def_cfa_offset 48
	.cfi_offset 3, -48
	subq	$96, %rsp
	.cfi_def_cfa_offset 144
	.loc 1 1247 0
	leaq	16(%rsp), %rbx
	.loc 1 1235 0
	movq	%fs:40, %rax
	movq	%rax, 88(%rsp)
	xorl	%eax, %eax
.LVL512:
	.loc 1 1247 0
	movq	%rbx, %rdi
.LVL513:
	rep stosq
	.loc 1 1251 0
	movzwl	port(%rip), %ecx
	leaq	64(%rsp), %rdi
	.loc 1 1249 0
	movl	$1, 16(%rsp)
	.loc 1 1250 0
	movl	$1, 24(%rsp)
	.loc 1 1251 0
	call	snprintf
.LVL514:
	.loc 1 1252 0
	movq	hostname(%rip), %rdi
	leaq	8(%rsp), %rcx
	leaq	64(%rsp), %rsi
	movq	%rbx, %rdx
	call	getaddrinfo
.LVL515:
	testl	%eax, %eax
	movl	%eax, %ebx
.LVL516:
	jne	.L561
.LVL517:
	.loc 1 1266 0
	movq	8(%rsp), %rax
.LVL518:
	testq	%rax, %rax
	je	.L493
	.loc 1 1265 0
	xorl	%ebx, %ebx
.LVL519:
	.loc 1 1264 0
	xorl	%esi, %esi
	jmp	.L498
.LVL520:
	.p2align 4,,10
	.p2align 3
.L563:
	.loc 1 1268 0
	cmpl	$10, %r8d
	jne	.L494
	.loc 1 1271 0
	testq	%rsi, %rsi
	cmove	%rax, %rsi
.LVL521:
.L494:
	.loc 1 1266 0
	movq	40(%rax), %rax
.LVL522:
	testq	%rax, %rax
	je	.L562
.LVL523:
.L498:
	.loc 1 1268 0
	movl	4(%rax), %r8d
	cmpl	$2, %r8d
	jne	.L563
	.loc 1 1275 0
	testq	%rbx, %rbx
	cmove	%rax, %rbx
.LVL524:
	.loc 1 1266 0
	movq	40(%rax), %rax
.LVL525:
	testq	%rax, %rax
	jne	.L498
.L562:
	.loc 1 1281 0
	testq	%rsi, %rsi
	je	.L564
	.loc 1 1285 0
	movl	16(%rsi), %r8d
	cmpq	$128, %r8
	ja	.L560
	.loc 1 1293 0
	testb	$1, %r14b
	movq	%r14, %rdi
	movl	$128, %r8d
	jne	.L565
.L502:
	testb	$2, %dil
	jne	.L566
.L503:
	testb	$4, %dil
	jne	.L567
.L504:
	movl	%r8d, %ecx
	xorl	%eax, %eax
.LVL526:
	shrl	$3, %ecx
	testb	$4, %r8b
	rep stosq
	jne	.L568
.L505:
	testb	$2, %r8b
	jne	.L569
.L506:
	andl	$1, %r8d
	jne	.L570
.L507:
	.loc 1 1294 0
	movl	16(%rsi), %edx
	movq	24(%rsi), %rsi
.LVL527:
	movq	%r14, %rdi
	call	memmove
.LVL528:
	.loc 1 1295 0
	movl	$1, 0(%r13)
.LVL529:
.L500:
	.loc 1 1298 0
	testq	%rbx, %rbx
	je	.L571
	.loc 1 1302 0
	movl	16(%rbx), %r8d
	cmpq	$128, %r8
	ja	.L560
	.loc 1 1310 0
	testb	$1, %bpl
	movq	%rbp, %rdi
	movl	$128, %edx
	jne	.L572
.L511:
	testb	$2, %dil
	jne	.L573
.L512:
	testb	$4, %dil
	jne	.L574
.L513:
	movl	%edx, %ecx
	xorl	%eax, %eax
	shrl	$3, %ecx
	testb	$4, %dl
	rep stosq
	jne	.L575
.L514:
	testb	$2, %dl
	jne	.L576
.L515:
	andl	$1, %edx
	jne	.L577
.L516:
	.loc 1 1311 0
	movl	16(%rbx), %edx
	movq	24(%rbx), %rsi
	movq	%rbp, %rdi
	call	memmove
.LVL530:
	.loc 1 1312 0
	movl	$1, (%r12)
.L509:
	.loc 1 1315 0
	movq	8(%rsp), %rdi
	call	freeaddrinfo
.LVL531:
	.loc 1 1365 0
	movq	88(%rsp), %rax
	xorq	%fs:40, %rax
	jne	.L578
	addq	$96, %rsp
	.cfi_remember_state
	.cfi_def_cfa_offset 48
	popq	%rbx
	.cfi_def_cfa_offset 40
	popq	%rbp
	.cfi_def_cfa_offset 32
.LVL532:
	popq	%r12
	.cfi_def_cfa_offset 24
.LVL533:
	popq	%r13
	.cfi_def_cfa_offset 16
.LVL534:
	popq	%r14
	.cfi_def_cfa_offset 8
.LVL535:
	ret
.LVL536:
.L577:
	.cfi_restore_state
	.loc 1 1310 0
	movb	$0, (%rdi)
	jmp	.L516
.L576:
	movw	$0, (%rdi)
	addq	$2, %rdi
	jmp	.L515
.L575:
	movl	$0, (%rdi)
	addq	$4, %rdi
	jmp	.L514
.LVL537:
.L570:
	.loc 1 1293 0
	movb	$0, (%rdi)
	jmp	.L507
.L569:
	movw	$0, (%rdi)
	addq	$2, %rdi
	jmp	.L506
.L568:
	movl	$0, (%rdi)
	addq	$4, %rdi
	jmp	.L505
.LVL538:
.L564:
	.loc 1 1281 0
	movq	%rbx, %rax
.LVL539:
.L493:
	.loc 1 1282 0
	movl	$0, 0(%r13)
	movq	%rax, %rbx
	jmp	.L500
.L571:
	.loc 1 1299 0
	movl	$0, (%r12)
	jmp	.L509
.L574:
	.loc 1 1310 0
	movl	$0, (%rdi)
	subl	$4, %edx
	addq	$4, %rdi
	jmp	.L513
.LVL540:
.L572:
	movb	$0, 0(%rbp)
	leaq	1(%rbp), %rdi
.LVL541:
	movb	$127, %dl
	jmp	.L511
.L573:
	movw	$0, (%rdi)
	subl	$2, %edx
	addq	$2, %rdi
	jmp	.L512
.LVL542:
.L565:
	.loc 1 1293 0
	movb	$0, (%r14)
	leaq	1(%r14), %rdi
.LVL543:
	movb	$127, %r8b
	jmp	.L502
.L566:
	movw	$0, (%rdi)
	subl	$2, %r8d
	addq	$2, %rdi
	jmp	.L503
.L567:
	movl	$0, (%rdi)
	subl	$4, %r8d
	addq	$4, %rdi
	jmp	.L504
.LVL544:
.L578:
	.loc 1 1365 0
	call	__stack_chk_fail
.LVL545:
.L560:
	.loc 1 1304 0
	movq	hostname(%rip), %rdx
	movl	$2, %edi
	movl	$128, %ecx
	movl	$.LC97, %esi
	xorl	%eax, %eax
	call	syslog
.LVL546:
	.loc 1 1308 0
	movl	$1, %edi
	call	exit
.LVL547:
.L561:
	.loc 1 1254 0
	movl	%eax, %edi
	call	gai_strerror
.LVL548:
	movq	hostname(%rip), %rdx
	movq	%rax, %rcx
	movl	$.LC95, %esi
	movl	$2, %edi
	xorl	%eax, %eax
	call	syslog
.LVL549:
	.loc 1 1257 0
	movl	%ebx, %edi
	call	gai_strerror
.LVL550:
	movq	stderr(%rip), %rdi
	movq	hostname(%rip), %rcx
	movq	%rax, %r8
	movq	argv0(%rip), %rdx
	movl	$.LC96, %esi
	xorl	%eax, %eax
	call	fprintf
.LVL551:
	.loc 1 1260 0
	movl	$1, %edi
	call	exit
.LVL552:
	.cfi_endproc
.LFE37:
	.size	lookup_hostname.constprop.1, .-lookup_hostname.constprop.1
	.section	.rodata.str1.1
.LC98:
	.string	"can't find any valid address"
	.section	.rodata.str1.8
	.align 8
.LC99:
	.string	"%s: can't find any valid address\n"
	.section	.rodata.str1.1
.LC100:
	.string	"unknown user - '%.80s'"
.LC101:
	.string	"%s: unknown user - '%s'\n"
.LC102:
	.string	"/dev/null"
	.section	.rodata.str1.8
	.align 8
.LC103:
	.string	"logfile is not an absolute path, you may not be able to re-open it"
	.align 8
.LC104:
	.string	"%s: logfile is not an absolute path, you may not be able to re-open it\n"
	.section	.rodata.str1.1
.LC105:
	.string	"fchown logfile - %m"
.LC106:
	.string	"fchown logfile"
.LC107:
	.string	"chdir - %m"
.LC108:
	.string	"chdir"
.LC109:
	.string	"daemon - %m"
.LC110:
	.string	"w"
.LC111:
	.string	"%d\n"
	.section	.rodata.str1.8
	.align 8
.LC112:
	.string	"fdwatch initialization failure"
	.section	.rodata.str1.1
.LC113:
	.string	"chroot - %m"
	.section	.rodata.str1.8
	.align 8
.LC114:
	.string	"logfile is not within the chroot tree, you will not be able to re-open it"
	.align 8
.LC115:
	.string	"%s: logfile is not within the chroot tree, you will not be able to re-open it\n"
	.section	.rodata.str1.1
.LC116:
	.string	"chroot chdir - %m"
.LC117:
	.string	"chroot chdir"
.LC118:
	.string	"data_dir chdir - %m"
.LC119:
	.string	"data_dir chdir"
.LC120:
	.string	"tmr_create(occasional) failed"
.LC121:
	.string	"tmr_create(idle) failed"
	.section	.rodata.str1.8
	.align 8
.LC122:
	.string	"tmr_create(update_throttles) failed"
	.section	.rodata.str1.1
.LC123:
	.string	"tmr_create(show_stats) failed"
.LC124:
	.string	"setgroups - %m"
.LC125:
	.string	"setgid - %m"
.LC126:
	.string	"initgroups - %m"
.LC127:
	.string	"setuid - %m"
	.section	.rodata.str1.8
	.align 8
.LC128:
	.string	"started as root without requesting chroot(), warning only"
	.align 8
.LC129:
	.string	"out of memory allocating a connecttab"
	.section	.rodata.str1.1
.LC130:
	.string	"fdwatch - %m"
	.section	.text.startup,"ax",@progbits
	.p2align 4,,15
	.globl	main
	.type	main, @function
main:
.LFB9:
	.loc 1 353 0
	.cfi_startproc
.LVL553:
	pushq	%r15
	.cfi_def_cfa_offset 16
	.cfi_offset 15, -16
	pushq	%r14
	.cfi_def_cfa_offset 24
	.cfi_offset 14, -24
	pushq	%r13
	.cfi_def_cfa_offset 32
	.cfi_offset 13, -32
	pushq	%r12
	.cfi_def_cfa_offset 40
	.cfi_offset 12, -40
	movl	%edi, %r12d
	pushq	%rbp
	.cfi_def_cfa_offset 48
	.cfi_offset 6, -48
	movq	%rsi, %rbp
	pushq	%rbx
	.cfi_def_cfa_offset 56
	.cfi_offset 3, -56
	subq	$4520, %rsp
	.cfi_def_cfa_offset 4576
	.loc 1 370 0
	movq	(%rsi), %rbx
	.loc 1 372 0
	movl	$47, %esi
.LVL554:
	.loc 1 353 0
	movq	%fs:40, %rax
	movq	%rax, 4504(%rsp)
	xorl	%eax, %eax
.LVL555:
	.loc 1 372 0
	movq	%rbx, %rdi
.LVL556:
	.loc 1 370 0
	movq	%rbx, argv0(%rip)
	.loc 1 372 0
	call	strrchr
.LVL557:
	.loc 1 374 0
	leaq	1(%rax), %rdx
	testq	%rax, %rax
	.loc 1 377 0
	movl	$9, %esi
	.loc 1 374 0
	cmovne	%rdx, %rbx
.LVL558:
	.loc 1 377 0
	movl	$24, %edx
	movq	%rbx, %rdi
	call	openlog
.LVL559:
	.loc 1 380 0
	movq	%rbp, %rsi
	movl	%r12d, %edi
	.loc 1 386 0
	leaq	144(%rsp), %rbp
.LVL560:
	leaq	272(%rsp), %r12
.LVL561:
	.loc 1 380 0
	call	parse_args
.LVL562:
	.loc 1 383 0
	call	tzset
.LVL563:
	.loc 1 386 0
	leaq	124(%rsp), %rcx
	leaq	120(%rsp), %rsi
	movq	%r12, %rdx
	movq	%rbp, %rdi
	call	lookup_hostname.constprop.1
.LVL564:
	.loc 1 387 0
	movl	120(%rsp), %ecx
	testl	%ecx, %ecx
	jne	.L581
	.loc 1 387 0 is_stmt 0 discriminator 1
	cmpl	$0, 124(%rsp)
	je	.L715
.L581:
	.loc 1 398 0 is_stmt 1
	movq	throttlefile(%rip), %rdi
	.loc 1 395 0
	movl	$0, numthrottles(%rip)
	.loc 1 396 0
	movl	$0, maxthrottles(%rip)
	.loc 1 397 0
	movq	$0, throttles(%rip)
	.loc 1 398 0
	testq	%rdi, %rdi
	je	.L582
	.loc 1 399 0
	call	read_throttlefile
.LVL565:
.L582:
	.loc 1 404 0
	call	getuid
.LVL566:
	testl	%eax, %eax
	.loc 1 357 0
	movl	$32767, %r15d
	.loc 1 356 0
	movl	$32767, 100(%rsp)
	.loc 1 404 0
	je	.L716
.LVL567:
.L583:
	.loc 1 418 0
	movq	logfile(%rip), %rbx
.LVL568:
	testq	%rbx, %rbx
	je	.L655
	.loc 1 420 0
	movl	$.LC102, %edi
	movl	$10, %ecx
	movq	%rbx, %rsi
	repz cmpsb
	je	.L717
	.loc 1 425 0
	movl	$.LC77, %esi
	movq	%rbx, %rdi
	call	strcmp
.LVL569:
	testl	%eax, %eax
	jne	.L587
	.loc 1 426 0
	movq	stdout(%rip), %r14
.LVL570:
.L585:
	.loc 1 460 0
	movq	dir(%rip), %rdi
	testq	%rdi, %rdi
	je	.L591
	.loc 1 462 0
	call	chdir
.LVL571:
	testl	%eax, %eax
	js	.L718
.L591:
	.loc 1 486 0
	leaq	400(%rsp), %rbx
	movl	$4096, %esi
	movq	%rbx, %rdi
	call	getcwd
.LVL572:
	.loc 1 487 0
	movq	%rbx, %rdx
.L592:
	movl	(%rdx), %ecx
	addq	$4, %rdx
	leal	-16843009(%rcx), %eax
	notl	%ecx
	andl	%ecx, %eax
	andl	$-2139062144, %eax
	je	.L592
	movl	%eax, %ecx
	shrl	$16, %ecx
	testl	$32896, %eax
	cmove	%ecx, %eax
	leaq	2(%rdx), %rcx
	cmove	%rcx, %rdx
	addb	%al, %al
	sbbq	$3, %rdx
	subq	%rbx, %rdx
	cmpb	$47, 399(%rsp,%rdx)
	je	.L594
	.loc 1 488 0
	movw	$47, (%rbx,%rdx)
.L594:
	.loc 1 490 0
	movl	debug(%rip), %edx
	testl	%edx, %edx
	jne	.L595
	.loc 1 495 0
	movq	stdin(%rip), %rdi
	call	fclose
.LVL573:
	.loc 1 496 0
	movq	stdout(%rip), %rdi
	cmpq	%rdi, %r14
	je	.L596
	.loc 1 497 0
	call	fclose
.LVL574:
.L596:
	.loc 1 498 0
	movq	stderr(%rip), %rdi
	call	fclose
.LVL575:
	.loc 1 502 0
	movl	$1, %esi
	movl	$1, %edi
	call	daemon
.LVL576:
	testl	%eax, %eax
	.loc 1 504 0
	movl	$.LC109, %esi
	.loc 1 502 0
	js	.L713
.L597:
	.loc 1 533 0
	movq	pidfile(%rip), %rdi
	testq	%rdi, %rdi
	je	.L598
.LBB8:
	.loc 1 536 0
	movl	$.LC110, %esi
	call	fopen
.LVL577:
	.loc 1 537 0
	testq	%rax, %rax
	.loc 1 536 0
	movq	%rax, %r13
.LVL578:
	.loc 1 537 0
	je	.L719
	.loc 1 542 0
	call	getpid
.LVL579:
	movq	%r13, %rdi
	movl	%eax, %edx
	movl	$.LC111, %esi
	xorl	%eax, %eax
	call	fprintf
.LVL580:
	.loc 1 543 0
	movq	%r13, %rdi
	call	fclose
.LVL581:
.L598:
.LBE8:
	.loc 1 549 0
	call	fdwatch_get_nfiles
.LVL582:
	.loc 1 550 0
	testl	%eax, %eax
	.loc 1 549 0
	movl	%eax, max_connects(%rip)
	.loc 1 550 0
	js	.L720
	.loc 1 555 0
	subl	$10, %eax
	.loc 1 558 0
	cmpl	$0, do_chroot(%rip)
	.loc 1 555 0
	movl	%eax, max_connects(%rip)
	.loc 1 558 0
	jne	.L721
.L601:
	.loc 1 598 0
	movq	data_dir(%rip), %rdi
	testq	%rdi, %rdi
	je	.L605
	.loc 1 600 0
	call	chdir
.LVL583:
	testl	%eax, %eax
	js	.L722
.L605:
	.loc 1 610 0
	movl	$handle_term, %esi
	movl	$15, %edi
	xorl	%eax, %eax
	call	sigset
.LVL584:
	.loc 1 611 0
	movl	$handle_term, %esi
	movl	$2, %edi
	xorl	%eax, %eax
	call	sigset
.LVL585:
	.loc 1 612 0
	movl	$handle_chld, %esi
	movl	$17, %edi
	xorl	%eax, %eax
	call	sigset
.LVL586:
	.loc 1 613 0
	movl	$1, %esi
	movl	$13, %edi
	xorl	%eax, %eax
	call	sigset
.LVL587:
	.loc 1 614 0
	movl	$handle_hup, %esi
	movl	$1, %edi
	xorl	%eax, %eax
	call	sigset
.LVL588:
	.loc 1 615 0
	movl	$handle_usr1, %esi
	movl	$10, %edi
	xorl	%eax, %eax
	call	sigset
.LVL589:
	.loc 1 616 0
	movl	$handle_usr2, %esi
	movl	$12, %edi
	xorl	%eax, %eax
	call	sigset
.LVL590:
	.loc 1 617 0
	movl	$handle_alrm, %esi
	movl	$14, %edi
	xorl	%eax, %eax
	call	sigset
.LVL591:
	.loc 1 631 0
	movl	$360, %edi
	.loc 1 628 0
	movl	$0, got_hup(%rip)
	.loc 1 629 0
	movl	$0, got_usr1(%rip)
	.loc 1 630 0
	movl	$0, watchdog_flag(%rip)
	.loc 1 631 0
	call	alarm
.LVL592:
	.loc 1 634 0
	call	tmr_init
.LVL593:
	.loc 1 639 0
	movl	no_empty_referers(%rip), %eax
	xorl	%esi, %esi
	cmpl	$0, 124(%rsp)
	movq	%r12, %rdx
	movzwl	port(%rip), %ecx
	movl	cgi_limit(%rip), %r9d
	movq	cgi_pattern(%rip), %r8
	movq	hostname(%rip), %rdi
	movl	%eax, 88(%rsp)
	movq	local_pattern(%rip), %rax
	cmove	%rsi, %rdx
	cmpl	$0, 120(%rsp)
	movq	%r14, 40(%rsp)
	movq	%rbx, 24(%rsp)
	movq	%rax, 80(%rsp)
	movq	url_pattern(%rip), %rax
	cmovne	%rbp, %rsi
	movq	%rax, 72(%rsp)
	movl	do_global_passwd(%rip), %eax
	movl	%eax, 64(%rsp)
	movl	do_vhost(%rip), %eax
	movl	%eax, 56(%rsp)
	movl	no_symlink_check(%rip), %eax
	movl	%eax, 48(%rsp)
	movl	no_log(%rip), %eax
	movl	%eax, 32(%rsp)
	movl	max_age(%rip), %eax
	movl	%eax, 16(%rsp)
	movq	p3p(%rip), %rax
	movq	%rax, 8(%rsp)
	movq	charset(%rip), %rax
	movq	%rax, (%rsp)
	call	httpd_initialize
.LVL594:
	.loc 1 645 0
	testq	%rax, %rax
	.loc 1 639 0
	movq	%rax, hs(%rip)
	.loc 1 645 0
	je	.L714
	.loc 1 649 0
	movq	JunkClientData(%rip), %rdx
	xorl	%edi, %edi
	movl	$1, %r8d
	movl	$120000, %ecx
	movl	$occasional, %esi
	call	tmr_create
.LVL595:
	testq	%rax, %rax
	je	.L723
	.loc 1 655 0
	movq	JunkClientData(%rip), %rdx
	xorl	%edi, %edi
	movl	$1, %r8d
	movl	$5000, %ecx
	movl	$idle, %esi
	call	tmr_create
.LVL596:
	testq	%rax, %rax
	je	.L724
	.loc 1 660 0
	cmpl	$0, numthrottles(%rip)
	jle	.L611
	.loc 1 663 0
	movq	JunkClientData(%rip), %rdx
	xorl	%edi, %edi
	movl	$1, %r8d
	movl	$2000, %ecx
	movl	$update_throttles, %esi
	call	tmr_create
.LVL597:
	testq	%rax, %rax
	je	.L725
.L611:
	.loc 1 671 0
	movq	JunkClientData(%rip), %rdx
	xorl	%edi, %edi
	movl	$1, %r8d
	movl	$3600000, %ecx
	movl	$show_stats, %esi
	call	tmr_create
.LVL598:
	testq	%rax, %rax
	je	.L726
	.loc 1 677 0
	xorl	%edi, %edi
	call	time
.LVL599:
	.loc 1 678 0
	movq	$0, stats_connections(%rip)
	.loc 1 677 0
	movq	%rax, stats_time(%rip)
	movq	%rax, start_time(%rip)
	.loc 1 679 0
	movq	$0, stats_bytes(%rip)
	.loc 1 680 0
	movl	$0, stats_simultaneous(%rip)
	.loc 1 683 0
	call	getuid
.LVL600:
	testl	%eax, %eax
	jne	.L614
	.loc 1 686 0
	xorl	%esi, %esi
	xorl	%edi, %edi
	call	setgroups
.LVL601:
	testl	%eax, %eax
	.loc 1 688 0
	movl	$.LC124, %esi
	.loc 1 686 0
	js	.L713
	.loc 1 692 0
	movl	%r15d, %edi
	call	setgid
.LVL602:
	testl	%eax, %eax
	.loc 1 694 0
	movl	$.LC125, %esi
	.loc 1 692 0
	js	.L713
	.loc 1 698 0
	movq	user(%rip), %rdi
	movl	%r15d, %esi
	call	initgroups
.LVL603:
	testl	%eax, %eax
	js	.L727
.L617:
	.loc 1 705 0
	movl	100(%rsp), %edi
	call	setuid
.LVL604:
	testl	%eax, %eax
	.loc 1 707 0
	movl	$.LC127, %esi
	.loc 1 705 0
	js	.L713
	.loc 1 711 0
	cmpl	$0, do_chroot(%rip)
	je	.L728
.L614:
	.loc 1 718 0
	movl	max_connects(%rip), %ebx
	movslq	%ebx, %rbp
	imulq	$144, %rbp, %rbp
	movq	%rbp, %rdi
	call	malloc
.LVL605:
	.loc 1 719 0
	testq	%rax, %rax
	.loc 1 718 0
	movq	%rax, connects(%rip)
	.loc 1 719 0
	je	.L620
.LVL606:
	.loc 1 724 0 discriminator 1
	xorl	%ecx, %ecx
	testl	%ebx, %ebx
	movq	%rax, %rdx
	jle	.L624
.LVL607:
	.p2align 4,,10
	.p2align 3
.L694:
	.loc 1 727 0 discriminator 2
	addl	$1, %ecx
.LVL608:
	.loc 1 726 0 discriminator 2
	movl	$0, (%rdx)
	.loc 1 728 0 discriminator 2
	movq	$0, 8(%rdx)
.LVL609:
	.loc 1 727 0 discriminator 2
	movl	%ecx, 4(%rdx)
	addq	$144, %rdx
	.loc 1 724 0 discriminator 2
	cmpl	%ebx, %ecx
	jne	.L694
.LVL610:
.L624:
	.loc 1 730 0
	movl	$-1, -140(%rax,%rbp)
	.loc 1 735 0
	movq	hs(%rip), %rax
	.loc 1 731 0
	movl	$0, first_free_connect(%rip)
	.loc 1 732 0
	movl	$0, num_connects(%rip)
	.loc 1 733 0
	movl	$0, httpd_conn_count(%rip)
	.loc 1 735 0
	testq	%rax, %rax
	je	.L626
	.loc 1 737 0
	movl	72(%rax), %edi
	cmpl	$-1, %edi
	je	.L627
	.loc 1 738 0
	xorl	%edx, %edx
	xorl	%esi, %esi
	call	fdwatch_add_fd
.LVL611:
	movq	hs(%rip), %rax
.L627:
	.loc 1 739 0
	movl	76(%rax), %edi
	cmpl	$-1, %edi
	je	.L626
	.loc 1 740 0
	xorl	%edx, %edx
	xorl	%esi, %esi
	call	fdwatch_add_fd
.LVL612:
.L626:
	.loc 1 744 0
	leaq	128(%rsp), %rdi
	call	tmr_prepare_timeval
.LVL613:
	.p2align 4,,10
	.p2align 3
.L628:
	.loc 1 745 0 discriminator 1
	movl	terminate(%rip), %eax
	testl	%eax, %eax
	je	.L652
	.loc 1 745 0 is_stmt 0 discriminator 2
	cmpl	$0, num_connects(%rip)
	jle	.L729
.L652:
	.loc 1 748 0 is_stmt 1
	movl	got_hup(%rip), %eax
	testl	%eax, %eax
	jne	.L730
.L629:
	.loc 1 755 0
	leaq	128(%rsp), %rdi
	call	tmr_mstimeout
.LVL614:
	movq	%rax, %rdi
	call	fdwatch
.LVL615:
	.loc 1 756 0
	testl	%eax, %eax
	.loc 1 755 0
	movl	%eax, %ebx
.LVL616:
	.loc 1 756 0
	js	.L731
	.loc 1 763 0
	leaq	128(%rsp), %rdi
	call	tmr_prepare_timeval
.LVL617:
	.loc 1 765 0
	testl	%ebx, %ebx
	je	.L732
	.loc 1 773 0
	movq	hs(%rip), %rax
	testq	%rax, %rax
	je	.L643
	.loc 1 773 0 is_stmt 0 discriminator 1
	movl	76(%rax), %edi
	cmpl	$-1, %edi
	je	.L637
	.loc 1 774 0 is_stmt 1 discriminator 1
	call	fdwatch_check_fd
.LVL618:
	.loc 1 773 0 discriminator 1
	testl	%eax, %eax
	jne	.L638
.L641:
	.loc 1 783 0
	movq	hs(%rip), %rax
	testq	%rax, %rax
	je	.L643
.L637:
	.loc 1 783 0 is_stmt 0 discriminator 1
	movl	72(%rax), %edi
	cmpl	$-1, %edi
	je	.L643
	.loc 1 784 0 is_stmt 1 discriminator 1
	call	fdwatch_check_fd
.LVL619:
	.loc 1 783 0 discriminator 1
	testl	%eax, %eax
	jne	.L733
.LVL620:
	.p2align 4,,10
	.p2align 3
.L643:
	.loc 1 795 0 discriminator 1
	call	fdwatch_get_next_client_data
.LVL621:
	cmpq	$-1, %rax
	movq	%rax, %rbx
.LVL622:
	je	.L734
	.loc 1 797 0
	testq	%rbx, %rbx
	je	.L643
.LVL623:
	.loc 1 800 0
	movq	8(%rbx), %rax
.LVL624:
	movl	704(%rax), %edi
	call	fdwatch_check_fd
.LVL625:
	testl	%eax, %eax
	je	.L735
	.loc 1 804 0
	movl	(%rbx), %eax
	cmpl	$2, %eax
	je	.L646
	cmpl	$4, %eax
	je	.L647
	cmpl	$1, %eax
	jne	.L643
	.loc 1 806 0
	leaq	128(%rsp), %rsi
	movq	%rbx, %rdi
	call	handle_read
.LVL626:
	jmp	.L643
.LVL627:
.L717:
	.loc 1 422 0
	movl	$1, no_log(%rip)
.LVL628:
	.loc 1 423 0
	xorl	%r14d, %r14d
	jmp	.L585
.LVL629:
.L595:
	.loc 1 529 0
	call	setsid
.LVL630:
	jmp	.L597
.L720:
	.loc 1 552 0
	movl	$.LC112, %esi
.L713:
	movl	$2, %edi
	xorl	%eax, %eax
	call	syslog
.LVL631:
.L714:
	.loc 1 553 0
	movl	$1, %edi
	call	exit
.LVL632:
.L716:
	.loc 1 406 0
	movq	user(%rip), %rdi
	call	getpwnam
.LVL633:
	.loc 1 407 0
	testq	%rax, %rax
	je	.L736
	.loc 1 413 0
	movl	16(%rax), %ecx
	.loc 1 414 0
	movl	20(%rax), %r15d
	.loc 1 413 0
	movl	%ecx, 100(%rsp)
.LVL634:
	jmp	.L583
.LVL635:
.L715:
	.loc 1 389 0
	movl	$.LC98, %esi
	movl	$3, %edi
	xorl	%eax, %eax
	call	syslog
.LVL636:
	.loc 1 390 0
	movq	stderr(%rip), %rdi
	movq	argv0(%rip), %rdx
	movl	$.LC99, %esi
	xorl	%eax, %eax
	call	fprintf
.LVL637:
	.loc 1 391 0
	movl	$1, %edi
	call	exit
.LVL638:
.L735:
	.loc 1 802 0
	leaq	128(%rsp), %rsi
	movq	%rbx, %rdi
	call	clear_connection
.LVL639:
	jmp	.L643
.LVL640:
.L731:
	.loc 1 758 0
	call	__errno_location
.LVL641:
	movl	(%rax), %eax
	cmpl	$11, %eax
	.p2align 4,,3
	je	.L628
	cmpl	$4, %eax
	je	.L628
	.loc 1 760 0
	movl	$3, %edi
	movl	$.LC130, %esi
	xorl	%eax, %eax
	call	syslog
.LVL642:
	.loc 1 761 0
	movl	$1, %edi
	call	exit
.LVL643:
.L647:
	.loc 1 808 0
	leaq	128(%rsp), %rsi
	movq	%rbx, %rdi
	call	handle_linger
.LVL644:
	jmp	.L643
.L646:
	.loc 1 807 0
	leaq	128(%rsp), %rsi
	movq	%rbx, %rdi
	call	handle_send
.LVL645:
	jmp	.L643
.LVL646:
.L734:
	.loc 1 811 0
	leaq	128(%rsp), %rdi
	call	tmr_run
.LVL647:
	.loc 1 813 0
	movl	got_usr1(%rip), %eax
	testl	%eax, %eax
	je	.L628
	.loc 1 813 0 is_stmt 0 discriminator 1
	cmpl	$0, terminate(%rip)
	jne	.L628
	.loc 1 816 0 is_stmt 1
	movq	hs(%rip), %rax
	.loc 1 815 0
	movl	$1, terminate(%rip)
	.loc 1 816 0
	testq	%rax, %rax
	je	.L628
	.loc 1 818 0
	movl	72(%rax), %edi
	cmpl	$-1, %edi
	je	.L650
	.loc 1 819 0
	call	fdwatch_del_fd
.LVL648:
	movq	hs(%rip), %rax
.L650:
	.loc 1 820 0
	movl	76(%rax), %edi
	cmpl	$-1, %edi
	je	.L651
	.loc 1 821 0
	call	fdwatch_del_fd
.LVL649:
.L651:
	.loc 1 822 0
	movq	hs(%rip), %rdi
	call	httpd_unlisten
.LVL650:
	jmp	.L628
.LVL651:
.L730:
	.loc 1 750 0
	call	re_open_logfile
.LVL652:
	.loc 1 751 0
	movl	$0, got_hup(%rip)
	jmp	.L629
.LVL653:
.L732:
	.loc 1 768 0
	leaq	128(%rsp), %rdi
	call	tmr_run
.LVL654:
	.loc 1 769 0
	jmp	.L628
.LVL655:
.L721:
	.loc 1 560 0
	movq	%rbx, %rdi
	call	chroot
.LVL656:
	testl	%eax, %eax
	.p2align 4,,3
	js	.L737
	.loc 1 571 0
	movq	logfile(%rip), %r13
	testq	%r13, %r13
	je	.L603
	.loc 1 571 0 is_stmt 0 discriminator 1
	movl	$.LC77, %esi
	movq	%r13, %rdi
	call	strcmp
.LVL657:
	testl	%eax, %eax
	je	.L603
	.loc 1 573 0 is_stmt 1
	xorl	%eax, %eax
	orq	$-1, %rcx
	movq	%rbx, %rdi
	repnz scasb
	movq	%rbx, %rsi
	movq	%r13, %rdi
	notq	%rcx
	leaq	-1(%rcx), %rdx
	movq	%rcx, 104(%rsp)
	call	strncmp
.LVL658:
	testl	%eax, %eax
	movq	104(%rsp), %rcx
	jne	.L604
	.loc 1 575 0
	leaq	-2(%r13,%rcx), %rsi
	movq	%r13, %rdi
	call	strcpy
.LVL659:
.L603:
	.loc 1 589 0
	movq	%rbx, %rdi
	.loc 1 587 0
	movw	$47, 400(%rsp)
	.loc 1 589 0
	call	chdir
.LVL660:
	testl	%eax, %eax
	jns	.L601
	.loc 1 591 0
	movl	$.LC116, %esi
	movl	$2, %edi
	xorl	%eax, %eax
	call	syslog
.LVL661:
	.loc 1 592 0
	movl	$.LC117, %edi
	call	perror
.LVL662:
	.loc 1 593 0
	movl	$1, %edi
	call	exit
.LVL663:
.L655:
	.loc 1 457 0
	xorl	%r14d, %r14d
	jmp	.L585
.L587:
	.loc 1 429 0
	movq	%rbx, %rdi
	movl	$.LC79, %esi
	call	fopen
.LVL664:
	.loc 1 430 0
	movq	logfile(%rip), %rbx
	movl	$384, %esi
	.loc 1 429 0
	movq	%rax, %r14
.LVL665:
	.loc 1 430 0
	movq	%rbx, %rdi
	call	chmod
.LVL666:
	.loc 1 431 0
	testl	%eax, %eax
	jne	.L658
	testq	%r14, %r14
	je	.L658
	.loc 1 437 0
	cmpb	$47, (%rbx)
	.p2align 4,,3
	je	.L590
	.loc 1 439 0
	movl	$.LC103, %esi
	movl	$4, %edi
	xorl	%eax, %eax
.LVL667:
	call	syslog
.LVL668:
	.loc 1 440 0
	movq	argv0(%rip), %rdx
	movq	stderr(%rip), %rdi
	movl	$.LC104, %esi
	xorl	%eax, %eax
	call	fprintf
.LVL669:
.L590:
	.loc 1 442 0
	movq	%r14, %rdi
	call	fileno
.LVL670:
	movl	$1, %edx
	movl	%eax, %edi
	movl	$2, %esi
	xorl	%eax, %eax
	call	fcntl
.LVL671:
	.loc 1 443 0
	call	getuid
.LVL672:
	testl	%eax, %eax
	jne	.L585
	.loc 1 448 0
	movq	%r14, %rdi
	call	fileno
.LVL673:
	movl	100(%rsp), %esi
	movl	%r15d, %edx
	movl	%eax, %edi
	call	fchown
.LVL674:
	testl	%eax, %eax
	jns	.L585
	.loc 1 450 0
	movl	$.LC105, %esi
	movl	$4, %edi
	xorl	%eax, %eax
	call	syslog
.LVL675:
	.loc 1 451 0
	movl	$.LC106, %edi
	call	perror
.LVL676:
	jmp	.L585
.L718:
	.loc 1 464 0
	movl	$.LC107, %esi
	movl	$2, %edi
	xorl	%eax, %eax
	call	syslog
.LVL677:
	.loc 1 465 0
	movl	$.LC108, %edi
	call	perror
.LVL678:
	.loc 1 466 0
	movl	$1, %edi
	call	exit
.LVL679:
.L719:
.LBB9:
	.loc 1 539 0
	movq	pidfile(%rip), %rdx
	movl	$2, %edi
	movl	$.LC69, %esi
	xorl	%eax, %eax
.LVL680:
	call	syslog
.LVL681:
	.loc 1 540 0
	movl	$1, %edi
	call	exit
.LVL682:
.L723:
.LBE9:
	.loc 1 651 0
	movl	$2, %edi
	movl	$.LC120, %esi
	call	syslog
.LVL683:
	.loc 1 652 0
	movl	$1, %edi
	call	exit
.LVL684:
.L722:
	.loc 1 602 0
	movl	$.LC118, %esi
	movl	$2, %edi
	xorl	%eax, %eax
	call	syslog
.LVL685:
	.loc 1 603 0
	movl	$.LC119, %edi
	call	perror
.LVL686:
	.loc 1 604 0
	movl	$1, %edi
	call	exit
.LVL687:
.L604:
	.loc 1 583 0
	xorl	%eax, %eax
	movl	$.LC114, %esi
	movl	$4, %edi
	call	syslog
.LVL688:
	.loc 1 584 0
	movq	argv0(%rip), %rdx
	movq	stderr(%rip), %rdi
	movl	$.LC115, %esi
	xorl	%eax, %eax
	call	fprintf
.LVL689:
	jmp	.L603
.L728:
	.loc 1 712 0
	movl	$.LC128, %esi
	movl	$4, %edi
	xorl	%eax, %eax
	call	syslog
.LVL690:
	jmp	.L614
.L725:
	.loc 1 665 0
	movl	$2, %edi
	movl	$.LC122, %esi
	call	syslog
.LVL691:
	.loc 1 666 0
	movl	$1, %edi
	call	exit
.LVL692:
.L638:
	.loc 1 776 0
	movq	hs(%rip), %rax
	leaq	128(%rsp), %rdi
	movl	76(%rax), %esi
	call	handle_newconnect
.LVL693:
	testl	%eax, %eax
	jne	.L628
	jmp	.L641
.L733:
	.loc 1 786 0
	movq	hs(%rip), %rax
	leaq	128(%rsp), %rdi
	movl	72(%rax), %esi
	call	handle_newconnect
.LVL694:
	testl	%eax, %eax
	jne	.L628
	jmp	.L643
.LVL695:
.L726:
	.loc 1 673 0
	movl	$2, %edi
	movl	$.LC123, %esi
	call	syslog
.LVL696:
	.loc 1 674 0
	movl	$1, %edi
	call	exit
.LVL697:
.L658:
	.loc 1 433 0
	movq	%rbx, %rdx
	movl	$.LC69, %esi
	movl	$2, %edi
	xorl	%eax, %eax
.LVL698:
	call	syslog
.LVL699:
	.loc 1 434 0
	movq	logfile(%rip), %rdi
	call	perror
.LVL700:
	.loc 1 435 0
	movl	$1, %edi
	call	exit
.LVL701:
.L729:
	.loc 1 828 0
	call	shut_down
.LVL702:
	.loc 1 829 0
	movl	$5, %edi
	movl	$.LC85, %esi
	xorl	%eax, %eax
	call	syslog
.LVL703:
	.loc 1 830 0
	call	closelog
.LVL704:
	.loc 1 831 0
	xorl	%edi, %edi
	call	exit
.LVL705:
.L724:
	.loc 1 657 0
	movl	$2, %edi
	movl	$.LC121, %esi
	call	syslog
.LVL706:
	.loc 1 658 0
	movl	$1, %edi
	call	exit
.LVL707:
.L737:
	.loc 1 562 0
	movl	$.LC113, %esi
	movl	$2, %edi
	xorl	%eax, %eax
	call	syslog
.LVL708:
	.loc 1 563 0
	movl	$.LC17, %edi
	call	perror
.LVL709:
	.loc 1 564 0
	movl	$1, %edi
	call	exit
.LVL710:
.L736:
	.loc 1 409 0
	movq	user(%rip), %rdx
	movl	$.LC100, %esi
	movl	$2, %edi
	call	syslog
.LVL711:
	.loc 1 410 0
	movq	stderr(%rip), %rdi
	movq	user(%rip), %rcx
	movl	$.LC101, %esi
	movq	argv0(%rip), %rdx
	xorl	%eax, %eax
	call	fprintf
.LVL712:
	.loc 1 411 0
	movl	$1, %edi
	call	exit
.LVL713:
.L620:
	.loc 1 721 0
	movl	$.LC129, %esi
	jmp	.L713
.L727:
	.loc 1 699 0
	movl	$.LC126, %esi
	movl	$4, %edi
	xorl	%eax, %eax
	call	syslog
.LVL714:
	jmp	.L617
	.cfi_endproc
.LFE9:
	.size	main, .-main
	.local	watchdog_flag
	.comm	watchdog_flag,4,4
	.local	got_usr1
	.comm	got_usr1,4,4
	.local	got_hup
	.comm	got_hup,4,4
	.comm	stats_simultaneous,4,4
	.comm	stats_bytes,8,8
	.comm	stats_connections,8,8
	.comm	stats_time,8,8
	.comm	start_time,8,8
	.globl	terminate
	.bss
	.align 4
	.type	terminate, @object
	.size	terminate, 4
terminate:
	.zero	4
	.local	hs
	.comm	hs,8,8
	.local	httpd_conn_count
	.comm	httpd_conn_count,4,4
	.local	first_free_connect
	.comm	first_free_connect,4,4
	.local	max_connects
	.comm	max_connects,4,4
	.local	num_connects
	.comm	num_connects,4,4
	.local	connects
	.comm	connects,8,8
	.local	maxthrottles
	.comm	maxthrottles,4,4
	.local	numthrottles
	.comm	numthrottles,4,4
	.local	throttles
	.comm	throttles,8,8
	.local	max_age
	.comm	max_age,4,4
	.local	p3p
	.comm	p3p,8,8
	.local	charset
	.comm	charset,8,8
	.local	user
	.comm	user,8,8
	.local	pidfile
	.comm	pidfile,8,8
	.local	hostname
	.comm	hostname,8,8
	.local	throttlefile
	.comm	throttlefile,8,8
	.local	logfile
	.comm	logfile,8,8
	.local	local_pattern
	.comm	local_pattern,8,8
	.local	no_empty_referers
	.comm	no_empty_referers,4,4
	.local	url_pattern
	.comm	url_pattern,8,8
	.local	cgi_limit
	.comm	cgi_limit,4,4
	.local	cgi_pattern
	.comm	cgi_pattern,8,8
	.local	do_global_passwd
	.comm	do_global_passwd,4,4
	.local	do_vhost
	.comm	do_vhost,4,4
	.local	no_symlink_check
	.comm	no_symlink_check,4,4
	.local	no_log
	.comm	no_log,4,4
	.local	do_chroot
	.comm	do_chroot,4,4
	.local	data_dir
	.comm	data_dir,8,8
	.local	dir
	.comm	dir,8,8
	.local	port
	.comm	port,2,2
	.local	debug
	.comm	debug,4,4
	.local	argv0
	.comm	argv0,8,8
	.text
.Letext0:
	.file 2 "/usr/include/bits/types.h"
	.file 3 "/usr/include/sys/types.h"
	.file 4 "/usr/include/time.h"
	.file 5 "/usr/lib/gcc/x86_64-redhat-linux/4.8.5/include/stddef.h"
	.file 6 "/usr/include/bits/time.h"
	.file 7 "/usr/include/signal.h"
	.file 8 "/usr/include/bits/stat.h"
	.file 9 "/usr/include/bits/uio.h"
	.file 10 "/usr/include/pwd.h"
	.file 11 "/usr/include/stdio.h"
	.file 12 "/usr/include/libio.h"
	.file 13 "/usr/include/unistd.h"
	.file 14 "/usr/include/sys/time.h"
	.file 15 "/usr/include/bits/sockaddr.h"
	.file 16 "/usr/include/bits/socket.h"
	.file 17 "/usr/include/stdint.h"
	.file 18 "/usr/include/netinet/in.h"
	.file 19 "/usr/include/netdb.h"
	.file 20 "./libhttpd.h"
	.file 21 "./timers.h"
	.file 22 "/usr/include/sys/syslog.h"
	.file 23 "/usr/include/stdlib.h"
	.file 24 "./fdwatch.h"
	.file 25 "./mmc.h"
	.file 26 "/usr/include/sys/wait.h"
	.file 27 "/usr/include/string.h"
	.file 28 "<built-in>"
	.file 29 "/usr/include/sys/stat.h"
	.file 30 "/usr/include/fcntl.h"
	.file 31 "./match.h"
	.file 32 "/usr/include/sys/socket.h"
	.file 33 "/usr/include/sys/uio.h"
	.file 34 "/usr/include/bits/errno.h"
	.file 35 "/usr/include/grp.h"
	.file 36 "/usr/include/bits/socket_type.h"
	.section	.note.GNU-stack,"",@progbits
